(dp1
S'avx'
p2
(lp3
F3747.1880000000006
aF10245.776
aF25117.5
aF78075.540000000008
aF172474.79999999999
aF328589
aF566122.66666666663
aF1755723.3333333333
aF3485676.6666666665
aF14660833.333333334
aF11457245
aF16443600
aF41487400
aF54580800
asS'baseline'
p4
(lp5
F5853.6059999999998
aF14293.420000000002
aF43745.059999999998
aF119249.62
aF200724.60000000001
aF516461.66666666669
aF740307
aF1966393.3333333333
aF4148870
aF15756200
aF11523930
aF20418000
aF45964900
aF61249400
asS'block2_swap_avx'
p6
(lp7
F3957.9879999999998
aF9807.514000000001
aF22648.420000000002
aF69111.060000000012
aF151455.79999999999
aF295597.66666666669
aF501939.33333333331
aF1529053.3333333333
aF3334776.6666666665
aF13625900
aF10433690
aF17210900
aF55316800
aF55522500
asS'block2'
p8
(lp9
F3834.6520000000005
aF9736.1980000000003
aF23020.560000000001
aF79505.720000000001
aF129113.2
aF267001
aF490860
aF1765400
aF3629900
aF14364100
aF11350065
aF17211750
aF44537800
aF54701800
asS'block2_swap'
p10
(lp11
F4269.5100000000002
aF9904.1260000000002
aF22614.799999999999
aF66007.37999999999
aF124791.89999999999
aF269061.66666666669
aF503458.33333333331
aF1646153.3333333333
aF3152266.6666666665
aF14081400
aF10764870
aF21190050
aF48797600
aF54042100
asS'block4_swap_avx'
p12
(lp13
F4410.9380000000001
aF8847.8299999999981
aF22322.400000000001
aF63292.800000000003
aF123496.93999999999
aF241385.33333333334
aF429499
aF1425190
aF2987243.3333333335
aF12508233.333333334
aF10921305
aF16402200
aF55632900
aF53347000
asS'block2_sse'
p14
(lp15
F5569.7739999999994
aF14938.48
aF36565.900000000001
aF112180.7
aF223044.20000000001
aF463678.66666666669
aF810448.66666666663
aF2542663.3333333335
aF4879146.666666667
aF20305833.333333332
aF14510900
aF21954100
aF55475800
aF68693500
asS'block8_swap_avx'
p16
(lp17
F4110.1880000000001
aF9938.6800000000003
aF22884.939999999999
aF65695.079999999987
aF122222.18000000001
aF258362.33333333334
aF418090
aF1313013.3333333333
aF2690200
aF12040966.666666666
aF12440720
aF17415900
aF50152000
aF55341900
asS'sse'
p18
(lp19
F4829.7480000000005
aF13978.299999999999
aF33486.360000000001
aF110398.76000000001
aF240014
aF421306.66666666669
aF738556
aF2238593.3333333335
aF4379463.333333333
aF17867666.666666668
aF13108850
aF20401500
aF51454900
aF63660800
asS'gurobi'
p20
(lp21
F236810.39999999999
aF307817.79999999999
aF516397
aF891752.80000000005
aF1702894
aF2361013.3333333335
aF3668933.3333333335
aF7201573.333333333
aF19930066.666666668
aF29240966.666666668
aF63586450
aF81082250
aF163967000
aF322986000
asS'nta'
p22
(lp23
F5865.1779999999999
aF15881.779999999999
aF38210.139999999999
aF104562.94
aF227312.79999999999
aF400246
aF754197.33333333337
aF2096086.6666666667
aF4112280
aF17014300
aF13190200
aF23875800
aF50965900
aF60993800
asS'array'
p24
(lp25
F7204.1080000000002
aF20669.32
aF41331.860000000001
aF128521.81999999999
aF212148.39999999999
aF427550.66666666669
aF728235.33333333337
aF2267336.6666666665
aF4380960
aF17904733.333333332
aF13210550
aF19746550
aF55517100
aF65943600
asS'ssa'
p26
(lp27
F4075.2039999999993
aF11550.314000000002
aF25696.059999999998
aF79235.100000000006
aF174599.20000000001
aF314674.33333333331
aF584810.33333333337
aF2576693.3333333335
aF3549980
aF15009833.333333334
aF11606100
aF17945100
aF59539300
aF55632200
asS'glpk'
p28
(lp29
F76167.839999999997
aF135630.20000000001
aF238670.39999999999
aF496155
aF948974.80000000005
aF1440570
aF2770593.3333333335
aF7179373.333333333
aF23345566.666666668
aF49500466.666666664
aF71262800
aF100796700
aF172762000
aF305098000
asS'soplex'
p30
(lp31
F286281.59999999998
aF245042.39999999999
aF607145.40000000002
aF1304139.3999999999
aF1479166
aF2823463.3333333335
aF3673556.6666666665
aF6940686.666666667
aF15755266.666666666
aF41213033.333333336
aF47979300
aF71061900
aF185920000
aF183426000
as.