(dp1
S'avx'
p2
(lp3
F1.4442366000000001e-06
aF3.7695319999999993e-06
aF9.1218760000000009e-06
aF2.807498e-05
aF6.187806000000001e-05
aF0.00011766666666666665
aF0.00020279166666666666
aF0.00062874999999999997
aF0.0012480000000000002
aF0.0052486666666666662
aF0.0041019999999999997
aF0.0058875000000000004
aF0.014851
aF0.019539000000000001
asS'baseline'
p4
(lp5
F2.2485340000000002e-06
aF5.2656239999999998e-06
aF1.5848446000000001e-05
aF4.2901580000000001e-05
aF7.2034360000000007e-05
aF0.00018514599999999999
aF0.00026518733333333333
aF0.00070425000000000001
aF0.0014861666666666667
aF0.0056410000000000002
aF0.0041257500000000001
aF0.0073100000000000005
aF0.016454
aF0.021925
asS'block2_swap_avx'
p6
(lp7
F1.5200174000000001e-06
aF3.6208960000000002e-06
aF8.2089700000000001e-06
aF2.4880479999999999e-05
aF5.4312499999999999e-05
aF0.00010601023333333335
aF0.00017997900000000003
aF0.00054749999999999992
aF0.0011941666666666665
aF0.0048783333333333335
aF0.0037357499999999999
aF0.0061615000000000003
aF0.019802
aF0.019876000000000001
asS'block2'
p8
(lp9
F1.4743182e-06
aF3.5865240000000001e-06
aF8.3320379999999998e-06
aF2.858284e-05
aF4.6306240000000003e-05
aF9.5708133333333333e-05
aF0.00017589600000000001
aF0.00063225
aF0.0012996666666666666
aF0.005142666666666666
aF0.0040637499999999997
aF0.0061619999999999999
aF0.015944
aF0.019581999999999999
asS'block2_swap'
p10
(lp11
F1.6339356000000001e-06
aF3.6449219999999998e-06
aF8.2066379999999993e-06
aF2.3742179999999996e-05
aF4.4787500000000004e-05
aF9.6458166666666651e-05
aF0.00018047933333333334
aF0.00058958333333333334
aF0.0011286666666666667
aF0.0050409999999999995
aF0.0038547499999999997
aF0.0075864999999999995
aF0.017468000000000001
aF0.019345000000000001
asS'block4_swap_avx'
p12
(lp13
F1.6837896000000003e-06
aF3.2701179999999995e-06
aF8.1046939999999991e-06
aF2.2783599999999996e-05
aF4.4331239999999996e-05
aF8.6500200000000002e-05
aF0.00015393733333333333
aF0.00051029166666666671
aF0.0010695833333333332
aF0.0044776666666666671
aF0.0039107500000000002
aF0.0058729999999999997
aF0.019914000000000001
aF0.019096999999999999
asS'block2_sse'
p14
(lp15
F2.0953099999999999e-06
aF5.4515620000000007e-06
aF1.3340632e-05
aF4.02703e-05
aF7.9918699999999998e-05
aF0.00016616699999999997
aF0.00029033333333333336
aF0.00091058333333333323
aF0.0017468333333333335
aF0.0072693333333333325
aF0.005195
aF0.0078599999999999989
aF0.019858000000000001
aF0.024590000000000001
asS'block8_swap_avx'
p16
(lp17
F1.5743158e-06
aF3.6611340000000001e-06
aF8.2921820000000008e-06
aF2.3624239999999999e-05
aF4.3890619999999998e-05
aF9.2656166666666676e-05
aF0.0001498855
aF0.000470125
aF0.00096325000000000002
aF0.0043113333333333328
aF0.0044539999999999996
aF0.0062345000000000005
aF0.017954000000000001
aF0.019810999999999999
asS'sse'
p18
(lp19
F1.8299794000000001e-06
aF5.1171880000000004e-06
aF1.2110556e-05
aF3.9690599999999996e-05
aF8.6162380000000006e-05
aF0.00015094766666666666
aF0.00026460400000000004
aF0.0008015833333333334
aF0.0015681666666666667
aF0.0063963333333333329
aF0.0046930000000000001
aF0.0073039999999999997
aF0.018419000000000001
aF0.022789
asS'gurobi'
p20
(lp21
F8.4937500000000011e-05
aF0.00011034990000000002
aF0.00018502499999999998
aF0.000319375
aF0.00060987499999999996
aF0.0008451666666666667
aF0.0013133333333333332
aF0.0025783333333333335
aF0.0071346666666666668
aF0.010467333333333334
aF0.022761999999999998
aF0.029024500000000002
aF0.058693000000000002
aF0.11561399999999999
asS'nta'
p22
(lp23
F2.2001940000000004e-06
aF5.7976580000000005e-06
aF1.3802351999999999e-05
aF3.7592200000000002e-05
aF8.1593719999999999e-05
aF0.00014347916666666667
aF0.00027031266666666668
aF0.00075041666666666659
aF0.001472
aF0.0060910000000000001
aF0.0047220000000000005
aF0.0085474999999999995
aF0.018244
aF0.021833999999999999
asS'array'
p24
(lp25
F2.6840820000000002e-06
aF7.5402439999999998e-06
aF1.4915236000000003e-05
aF4.615624e-05
aF7.6143760000000005e-05
aF0.00015312500000000002
aF0.00026083333333333335
aF0.0008119999999999999
aF0.0015685000000000002
aF0.0064099999999999999
aF0.0047297499999999996
aF0.0070689999999999998
aF0.019873999999999999
aF0.023605999999999999
asS'ssa'
p26
(lp27
F1.5610858000000001e-06
aF4.2597660000000006e-06
aF9.3105419999999982e-06
aF2.8527339999999996e-05
aF6.2621919999999992e-05
aF0.00011276050000000001
aF0.00020939566666666666
aF0.00092275000000000007
aF0.0012711666666666668
aF0.0053733333333333341
aF0.0041552500000000001
aF0.0064244999999999997
aF0.021312999999999999
aF0.019914000000000001
asS'glpk'
p28
(lp29
F2.7409359999999999e-05
aF4.8640619999999998e-05
aF8.5618740000000004e-05
aF0.00017780000000000001
aF0.00033997500000000001
aF0.00051591666666666669
aF0.00099225000000000008
aF0.0025706666666666668
aF0.0083570000000000016
aF0.017720000000000003
aF0.025509999999999998
aF0.036081000000000002
aF0.061842000000000001
aF0.109212
asS'soplex'
p30
(lp31
F0.00010269999999999999
aF8.7956179999999995e-05
aF0.00021759980000000002
aF0.00046707500000000006
aF0.00052972499999999988
aF0.001011
aF0.0013151666666666667
aF0.0024849999999999998
aF0.0056403333333333331
aF0.014753333333333334
aF0.017175000000000003
aF0.025437500000000002
aF0.066550999999999999
aF0.065657999999999994
as.