(dp1
S'avx'
p2
(lp3
F3010.8820000000005
aF14147.933999999999
aF14870.196
aF73170.729999999981
aF221470.60000000001
aF377638.47999999998
aF867596
aF1929039
aF3086284
aF7066074
aF11577984
aF26813500
aF46635700
aF117347766.66666667
asS'baseline'
p4
(lp5
F2573.6034999999997
aF9985.1500000000015
aF13432.160500000004
aF47380.544999999998
aF139215.45000000001
aF261252.87000000002
aF624419.5
aF1418629.5
aF2176546
aF4840740
aF10412908
aF27123133.333333332
aF43837200
aF110425800
asS'block2_swap_avx'
p6
(lp7
F2777.8177499999997
aF13214.515499999998
aF13398.9565
aF64800.790000000001
aF190896.39999999999
aF300813.51000000001
aF740924.90000000002
aF1519478.8
aF2506748
aF6077838
aF12801222
aF29561766.666666668
aF47604833.333333336
aF116126333.33333333
asS'block2'
p8
(lp9
F2184.9973500000001
aF9623.6455000000024
aF9700.9735000000019
aF43245.590000000004
aF134664.22
aF220763.30999999997
aF560663.90000000002
aF1326992.5
aF2909164
aF5417698
aF10982308
aF23567866.666666668
aF46831833.333333336
aF110951933.33333333
asS'block2_swap'
p10
(lp11
F2622.2511500000001
aF10403.603500000001
aF10409.9725
aF44873.145000000004
aF121881.59
aF205910.67000000001
aF544075
aF1130611.3999999999
aF2188420
aF5239990
aF10252500
aF22970000
aF44683933.333333336
aF114577133.33333333
asS'block4_swap_avx'
p12
(lp13
F2577.4188500000005
aF11735.227499999997
aF11569.388999999999
aF55822.559999999998
aF158440.62
aF269553.28999999998
aF645311
aF1189013.6000000001
aF2260012
aF5495182
aF11427928
aF26037500
aF44780300
aF113254666.66666667
asS'block2_sse'
p14
(lp15
F3435.1970000000001
aF19947.121000000003
aF21329.915000000001
aF104670.035
aF304439.40000000002
aF516353.70000000001
aF1241946.1000000001
aF2477318
aF4346332
aF9282408
aF16014546
aF32756700
aF57244000
aF139518333.33333334
asS'block8_swap_avx'
p16
(lp17
F2331.7877499999995
aF11208.467000000002
aF10995.148499999999
aF56835.769999999997
aF152548.26000000001
aF257835.20000000001
aF616149.90000000002
aF1258224.2
aF2294546
aF5207496
aF14226880
aF26438066.666666668
aF44308600
aF118013000
asS'sse'
p18
(lp19
F3498.7305000000001
aF19394.975000000002
aF19803.080000000005
aF95238.189999999988
aF299721.5
aF477539.09999999998
aF1132981.6000000001
aF2023216
aF3679982
aF7877286
aF14392220
aF30359866.666666668
aF52422100
aF135816333.33333334
asS'gurobi'
p20
(lp21
F199225.72
aF351378.54999999999
aF482045.34999999998
aF868023.09999999998
aF1581726
aF2138836
aF4211519
aF7228440
aF16843760
aF31248180
aF61814440
aF91515133.333333328
aF175537333.33333334
aF299215333.33333331
asS'nta'
p22
(lp23
F2302.9945000000002
aF10808.562
aF10922.5725
aF48231.584999999999
aF150053.66
aF262398.54000000004
aF652592.30000000005
aF1195217.5
aF2397880
aF5445632
aF10271474
aF22995900
aF43142933.333333336
aF112408266.66666667
asS'array'
p24
(lp25
F2414.9553000000005
aF11048.254499999999
aF11119.237000000001
aF49590.285000000011
aF143507.73000000001
aF245959.45000000001
aF663288.90000000002
aF1496417.1000000001
aF2217232
aF5626536
aF12425402
aF25251833.333333332
aF44476766.666666664
aF113865700
asS'ssa'
p26
(lp27
F2380.9187500000003
aF11011.310000000001
aF11157.178000000002
aF54325.920000000006
aF154789.48000000001
aF253811.51000000001
aF662218.40000000002
aF1224393.2
aF2535796
aF5301462
aF10871902
aF23146500
aF42832400
aF107895666.66666667
asS'glpk'
p28
(lp29
F66027.934999999998
aF161382.85000000001
aF186093
aF457998
aF1271357
aF1610383.8999999999
aF3693172
aF8301710
aF21199600
aF41178500
aF72435540
aF106092000
aF213745666.66666666
aF350232666.66666669
asS'soplex'
p30
(lp31
F206882.5
aF451144.29999999999
aF503747.59999999998
aF986467.59999999998
aF2007305
aF2858139
aF5063537
aF10484569
aF14248760
aF34616060
aF55786080
aF91775066.666666672
aF147741333.33333334
aF437072333.33333331
as.