(dp1
S'avx'
p2
(lp3
F0.65228050000000004
aF0.92072454999999986
aF0.93147300000000011
aF0.96001370000000041
aF0.95414860000000012
aF0.98875860000000004
aF1.0132926
aF0.86095480000000002
aF0.88071280000000007
aF0.8142723999999999
aF0.77867839999999999
aF0.73029966666666668
aF0.73415766666666682
aF0.72241133333333341
asS'baseline'
p4
(lp5
F0.55654999999999988
aF0.88373069999999987
aF1.0872552500000001
aF1.2160994999999999
aF1.2736532000000003
aF1.3216933
aF1.328165
aF1.1720063999999997
aF1.2099629999999999
aF1.1158620000000001
aF0.84634739999999997
aF0.71034866666666663
aF0.75591533333333327
aF0.76262533333333327
asS'block2_swap_avx'
p6
(lp7
F0.69363870000000005
aF0.99961665000000011
aF1.0406674
aF1.1031397999999999
aF1.1372493000000001
aF1.2184279999999998
aF1.1710866
aF1.036057
aF1.0581714000000002
aF0.9184431999999999
aF0.72725679999999993
aF0.65682066666666661
aF0.70895633333333341
aF0.72850800000000004
asS'block2'
p8
(lp9
F0.85330494999999984
aF1.362079
aF1.4183540000000001
aF1.6352815000000001
aF1.6166452999999996
aF1.6897530000000001
aF1.571291
aF1.2292002
aF1.0369882000000001
aF1.0332349999999999
aF0.81390059999999997
aF0.81568199999999991
aF0.72002699999999997
aF0.76316766666666658
asS'block2_swap'
p10
(lp11
F0.73181114999999997
aF1.2519584999999998
aF1.3376417999999999
aF1.6180219999999998
aF1.7406710000000001
aF1.822964
aF1.6047740000000001
aF1.3732920000000002
aF1.2174120000000002
aF1.066624
aF0.88739500000000004
aF0.83905866666666673
aF0.76034533333333332
aF0.73998099999999989
asS'block4_swap_avx'
p12
(lp13
F0.73357240000000012
aF1.1308043999999999
aF1.1888384999999999
aF1.27610435
aF1.3319163000000001
aF1.3279055
aF1.3415466
aF1.3053759999999999
aF1.1741300000000001
aF1.0091022000000001
aF0.78562419999999999
aF0.74321933333333323
aF0.75320333333333345
aF0.7500969999999999
asS'block2_sse'
p14
(lp15
F0.54296709999999992
aF0.65446065000000009
aF0.65348815000000005
aF0.68297724999999998
aF0.68762559999999995
aF0.71261330000000012
aF0.70587060000000013
aF0.64292869999999991
aF0.62917560000000006
aF0.6019582
aF0.56376559999999998
aF0.59394999999999998
aF0.59305866666666673
aF0.60637933333333327
asS'block8_swap_avx'
p16
(lp17
F0.78747920000000005
aF1.1601525000000001
aF1.2499265000000002
aF1.2481757500000001
aF1.375931
aF1.3697684999999999
aF1.4041732000000002
aF1.2637988000000002
aF1.1532324
aF1.0705119999999999
aF0.62311899999999998
aF0.72713266666666654
aF0.76231066666666669
aF0.71700033333333335
asS'sse'
p18
(lp19
F0.53476995000000005
aF0.67735294999999995
aF0.69550670000000003
aF0.7358865
aF0.70426880000000003
aF0.77222809999999997
aF0.77239279999999999
aF0.76487769999999999
aF0.73508679999999993
aF0.70899560000000006
aF0.62115880000000001
aF0.63925233333333331
aF0.64662500000000001
aF0.62258800000000003
asS'gurobi'
p20
(lp21
F0.0068210100000000006
aF0.025602375
aF0.029364365000000003
aF0.065463450000000006
aF0.11430579999999999
aF0.15215717000000001
aF0.19485885999999999
aF0.20982500000000001
aF0.16157939999999998
aF0.1748122
aF0.14137727999999999
aF0.20985966666666667
aF0.18934266666666666
aF0.28087299999999998
asS'nta'
p22
(lp23
F0.80809165000000005
aF1.2059765
aF1.2607835000000001
aF1.4557265000000001
aF1.3911374999999999
aF1.4226284
aF1.344921
aF1.2953049999999999
aF1.1085309999999999
aF1.0164477999999999
aF0.87682439999999995
aF0.84403300000000003
aF0.7827006666666666
aF0.75230166666666676
asS'array'
p24
(lp25
F0.78316870000000005
aF1.1833389999999997
aF1.2406074999999999
aF1.4247869999999998
aF1.4267030000000001
aF1.5017989999999999
aF1.340511
aF1.0576698
aF1.211414
aF1.0021966
aF0.71949180000000001
aF0.77550833333333336
aF0.75784333333333331
aF0.74481433333333336
asS'ssa'
p26
(lp27
F0.77912845000000008
aF1.1856494999999998
aF1.2347885000000001
aF1.3121350499999997
aF1.3524702
aF1.4096316999999998
aF1.3228880000000001
aF1.2621293000000002
aF1.1200344
aF1.0531314000000001
aF0.81862560000000006
aF0.83974633333333326
aF0.79058066666666671
aF0.78546966666666673
asS'glpk'
p28
(lp29
F0.0187227695
aF0.053122704999999992
aF0.071152019999999996
aF0.12012235000000002
aF0.13830783999999999
aF0.19616143999999999
aF0.21788921999999999
aF0.18211669999999999
aF0.12430579999999999
aF0.13024200000000002
aF0.12086042000000001
aF0.18081533333333333
aF0.15496766666666667
aF0.23942533333333335
asS'soplex'
p30
(lp31
F0.0069082250000000013
aF0.022798494000000002
aF0.031028879999999998
aF0.068078799999999995
aF0.09193759
aF0.11394019000000002
aF0.16484340999999997
aF0.16324811
aF0.19134440000000003
aF0.1564364
aF0.17454684000000001
aF0.21108333333333332
aF0.22649133333333329
aF0.23369699999999996
as.