(dp1
S'avx'
p2
(lp3
F1.1839540999999997e-06
aF5.1689950000000013e-06
aF5.4351584999999999e-06
aF2.6312898499999996e-05
aF7.9465610000000001e-05
aF0.00013538285999999998
aF0.00031076239999999999
aF0.00069097499999999992
aF0.00110505
aF0.0025301
aF0.0041449
aF0.0095986666666666668
aF0.016693999999999997
aF0.042005999999999995
asS'baseline'
p4
(lp5
F1.0465884000000001e-06
aF3.6908919999999995e-06
aF4.9250010000000005e-06
aF1.7097851500000005e-05
aF4.9989100000000006e-05
aF9.3664770000000003e-05
aF0.00022370937000000001
aF0.00050821250000000003
aF0.00077960000000000008
aF0.0017333500000000003
aF0.0037285999999999999
aF0.0097100000000000016
aF0.015692666666666664
aF0.039528333333333332
asS'block2_swap_avx'
p6
(lp7
F1.0946225999999999e-06
aF4.8340319999999998e-06
aF4.9020509999999993e-06
aF2.3329300499999998e-05
aF6.8529629999999997e-05
aF0.00010777973000000002
aF0.00026541252000000006
aF0.00054434999999999998
aF0.00089770000000000008
aF0.002176
aF0.0045828999999999991
aF0.010582333333333334
aF0.017041000000000001
aF0.04156866666666667
asS'block2'
p8
(lp9
F8.8514439999999981e-07
aF3.5474365000000004e-06
aF3.5800775000000004e-06
aF1.5591789499999997e-05
aF4.8362500000000003e-05
aF7.915780999999999e-05
aF0.00020090932000000001
aF0.00047544999999999998
aF0.001041925
aF0.0019398499999999999
aF0.0039319999999999997
aF0.0084373333333333331
aF0.016764666666666667
aF0.039716333333333333
asS'block2_swap'
p10
(lp11
F1.0468928499999998e-06
aF3.8340090000000005e-06
aF3.8357905000000005e-06
aF1.6189355499999999e-05
aF4.3778919999999997e-05
aF7.389528999999999e-05
aF0.00019498432000000001
aF0.00040495
aF0.00078382499999999993
aF0.0018762500000000001
aF0.0036706999999999998
aF0.0082226666666666681
aF0.015996
aF0.041014666666666671
asS'block4_swap_avx'
p12
(lp13
F1.0277892500000001e-06
aF4.3018285000000005e-06
aF4.2494140000000003e-06
aF2.0093548999999997e-05
aF5.6876609999999998e-05
aF9.6653160000000009e-05
aF0.00023116880000000002
aF0.00042588749999999996
aF0.00080935000000000002
aF0.0019674999999999996
aF0.0040912000000000006
aF0.0093210000000000012
aF0.016029999999999999
aF0.040541000000000001
asS'block2_sse'
p14
(lp15
F1.3338865e-06
aF7.2440895000000003e-06
aF7.7416034999999984e-06
aF3.7585155000000011e-05
aF0.00010918432
aF0.00018504219000000001
aF0.00044479380000000002
aF0.00088717500000000014
aF0.0015560999999999999
aF0.0033231999999999997
aF0.0057333999999999996
aF0.011726333333333333
aF0.020491666666666665
aF0.049941999999999993
asS'block8_swap_avx'
p16
(lp17
F9.2280869999999999e-07
aF4.1151855000000003e-06
aF4.0423345000000005e-06
aF2.04812465e-05
aF5.4784380000000009e-05
aF9.248588e-05
aF0.00022072187000000002
aF0.00045053749999999999
aF0.00082170000000000008
aF0.0018647500000000001
aF0.0050933999999999997
aF0.0094643333333333333
aF0.015861666666666666
aF0.042244000000000004
asS'sse'
p18
(lp19
F1.35401585e-06
aF7.0479509999999994e-06
aF7.1900390000000015e-06
aF3.4251565000000007e-05
aF0.00010750939999999999
aF0.00017111087999999999
aF0.00040582500000000001
aF0.00072444999999999996
aF0.00131755
aF0.0028203000000000004
aF0.0051527000000000005
aF0.010868666666666667
aF0.018765666666666667
aF0.048617333333333325
asS'gurobi'
p20
(lp21
F7.1488264999999975e-05
aF0.000125996845
aF0.00017277179999999998
aF0.00031096249999999998
aF0.00056647499999999999
aF0.00076579999999999986
aF0.0015079500000000003
aF0.0025876999999999996
aF0.0060298000000000001
aF0.011185800000000001
aF0.022127199999999996
aF0.032758666666666665
aF0.062834666666666664
aF0.10710533333333333
asS'nta'
p22
(lp23
F9.2836325000000028e-07
aF3.9751225000000002e-06
aF4.0132800000000005e-06
aF1.7395981000000006e-05
aF5.3843749999999998e-05
aF9.4095319999999981e-05
aF0.00023380306999999998
aF0.00042798749999999991
aF0.00085859999999999994
aF0.0019499999999999999
aF0.0036771999999999998
aF0.0082323333333333346
aF0.015444000000000001
aF0.040237666666666665
asS'array'
p24
(lp25
F9.6972064999999995e-07
aF4.0631349999999992e-06
aF4.0917484999999995e-06
aF1.7864450999999997e-05
aF5.1521880000000004e-05
aF8.8112549999999997e-05
aF0.00023767810000000002
aF0.00053606250000000008
aF0.0007938000000000001
aF0.0020144999999999998
aF0.0044485000000000002
aF0.0090399999999999994
aF0.015921999999999999
aF0.040759333333333335
asS'ssa'
p26
(lp27
F9.5543259999999988e-07
aF4.0505129999999985e-06
aF4.0995619999999991e-06
aF1.9574611500000002e-05
aF5.5584389999999995e-05
aF9.0981200000000002e-05
aF0.00023721235
aF0.00043849999999999998
aF0.000908175
aF0.0018981000000000002
aF0.0038926000000000004
aF0.0082856666666666651
aF0.015333333333333332
aF0.038622333333333335
asS'glpk'
p28
(lp29
F2.3762105000000001e-05
aF5.7910164999999997e-05
aF6.6763269999999976e-05
aF0.00016415635
aF0.00045542500000000002
aF0.0005767875
aF0.0013223750000000002
aF0.0029724000000000005
aF0.0075894000000000005
aF0.014741000000000001
aF0.025929200000000003
aF0.037977333333333335
aF0.076512333333333335
aF0.12536733333333333
asS'soplex'
p30
(lp31
F7.428983499999999e-05
aF0.00016174683000000001
aF0.00018047332999999999
aF0.00035326875000000005
aF0.00071885000000000004
aF0.0010234999999999999
aF0.001813025
aF0.0037533500000000003
aF0.0051009999999999996
aF0.0123918
aF0.019969399999999998
aF0.032851666666666668
aF0.05288533333333334
aF0.15645133333333333
as.