(dp1
S'avx'
p2
(lp3
F0.21266980000000002
aF0.23206335
aF0.23597220000000002
aF0.24211184999999999
aF0.24507870000000001
aF0.24593660000000001
aF0.24727350000000001
aF0.24796530000000003
aF0.24860819999999997
aF0.24896840000000001
aF0.24917440000000002
aF0.24932200000000002
aF0.24949366666666664
aF0.24959899999999999
asS'baseline'
p4
(lp5
F0.21063535000000005
aF0.23034190000000004
aF0.23586259999999998
aF0.24162729999999999
aF0.24483360000000004
aF0.24581070000000005
aF0.24722389999999997
aF0.24794269999999999
aF0.24860360000000004
aF0.24895619999999999
aF0.24916900000000003
aF0.24931933333333331
aF0.24949066666666667
aF0.24959799999999999
asS'block2_swap_avx'
p6
(lp7
F0.15702685
aF0.19388999999999995
aF0.20730770000000001
aF0.2232777
aF0.23256000000000002
aF0.23567479999999996
aF0.24021739999999997
aF0.24258769999999999
aF0.24496560000000001
aF0.24622519999999998
aF0.24696699999999999
aF0.247475
aF0.24810466666666664
aF0.24848400000000001
asS'block2'
p8
(lp9
F0.21276574999999998
aF0.23207619999999998
aF0.23597905
aF0.24211290000000002
aF0.24507899999999999
aF0.24593680000000001
aF0.24727350000000001
aF0.24796530000000003
aF0.24860819999999997
aF0.24896840000000001
aF0.24917440000000002
aF0.24932200000000002
aF0.24949366666666664
aF0.24959899999999999
asS'block2_swap'
p10
(lp11
F0.16007465000000001
aF0.19623370000000001
aF0.20998834999999999
aF0.22483500000000003
aF0.2336868
aF0.23666689999999999
aF0.24093900000000001
aF0.24315380000000003
aF0.24536059999999998
aF0.2465166
aF0.24720560000000003
aF0.24767633333333336
aF0.24825566666666665
aF0.24860633333333335
asS'block4_swap_avx'
p12
(lp13
F0.15775264999999994
aF0.19388999999999995
aF0.20755455
aF0.22336665
aF0.23256000000000002
aF0.23567479999999996
aF0.24023140000000001
aF0.24258769999999999
aF0.24496560000000001
aF0.24622519999999998
aF0.24696699999999999
aF0.247475
aF0.24810466666666664
aF0.24848400000000001
asS'block2_sse'
p14
(lp15
F0.20742185000000007
aF0.22880644999999999
aF0.2325999
aF0.24030789999999999
aF0.24384
aF0.24486590000000003
aF0.24651360000000003
aF0.24737689999999998
aF0.24820260000000002
aF0.24867119999999998
aF0.24893240000000003
aF0.24911766666666668
aF0.24934133333333333
aF0.24947533333333335
asS'block8_swap_avx'
p16
(lp17
F0.15775264999999994
aF0.19452065000000002
aF0.20805090000000001
aF0.22336665
aF0.23256000000000002
aF0.2357329
aF0.24026019999999998
aF0.24258769999999999
aF0.24497359999999996
aF0.24622519999999998
aF0.24696980000000002
aF0.247475
aF0.24810466666666664
aF0.24848400000000001
asS'sse'
p18
(lp19
F0.21266980000000002
aF0.23206335
aF0.23597220000000002
aF0.24211184999999999
aF0.24507870000000001
aF0.24593660000000001
aF0.24727350000000001
aF0.24796530000000003
aF0.24860819999999997
aF0.24896840000000001
aF0.24917440000000002
aF0.24932200000000002
aF0.24949366666666664
aF0.24959899999999999
asS'gurobi'
p20
(lp21
F0.21063535000000005
aF0.23034190000000004
aF0.23586259999999998
aF0.24162729999999999
aF0.24483360000000004
aF0.24581070000000005
aF0.24722389999999997
aF0.24794269999999999
aF0.24860360000000004
aF0.24895619999999999
aF0.24916900000000003
aF0.24931933333333331
aF0.24949066666666667
aF0.24959799999999999
asS'nta'
p22
(lp23
F0.21266980000000002
aF0.23206335
aF0.23597220000000002
aF0.24211184999999999
aF0.24507870000000001
aF0.24593660000000001
aF0.24727350000000001
aF0.24796530000000003
aF0.24860819999999997
aF0.24896840000000001
aF0.24917440000000002
aF0.24932200000000002
aF0.24949366666666664
aF0.24959899999999999
asS'array'
p24
(lp25
F0.21266980000000002
aF0.23206335
aF0.23597220000000002
aF0.24211184999999999
aF0.24507870000000001
aF0.24593660000000001
aF0.24727350000000001
aF0.24796530000000003
aF0.24860819999999997
aF0.24896840000000001
aF0.24917440000000002
aF0.24932200000000002
aF0.24949366666666664
aF0.24959899999999999
asS'ssa'
p26
(lp27
F0.21266980000000002
aF0.23206335
aF0.23597220000000002
aF0.24211184999999999
aF0.24507870000000001
aF0.24593660000000001
aF0.24727350000000001
aF0.24796530000000003
aF0.24860819999999997
aF0.24896840000000001
aF0.24917440000000002
aF0.24932200000000002
aF0.24949366666666664
aF0.24959899999999999
asS'glpk'
p28
(lp29
F0.21063535000000005
aF0.23034190000000004
aF0.23586259999999998
aF0.24162729999999999
aF0.24483360000000004
aF0.24581070000000005
aF0.24722389999999997
aF0.24794269999999999
aF0.24860360000000004
aF0.24895619999999999
aF0.24916900000000003
aF0.24931933333333331
aF0.24949066666666667
aF0.24959799999999999
asS'soplex'
p30
(lp31
F0.21063535000000005
aF0.23034190000000004
aF0.23586259999999998
aF0.24162729999999999
aF0.24483360000000004
aF0.24581070000000005
aF0.24722389999999997
aF0.24794269999999999
aF0.24860360000000004
aF0.24895619999999999
aF0.24916900000000003
aF0.24931933333333331
aF0.24949066666666667
aF0.24959799999999999
as.