(dp1
S'avx'
p2
(lp3
F2866.9005500000003
aF13940.640000000003
aF14533.915500000003
aF71625.595000000001
aF193563.20000000001
aF348574.06
aF865370.30000000005
aF1617510
aF3195390
aF6926576
aF12467712
aF26225466.666666668
aF45485266.666666664
aF117280000
asS'baseline'
p4
(lp5
F3950.804000000001
aF23042.4545
aF27228.805000000004
aF93768.054999999993
aF229152.29999999999
aF410316.40000000002
aF995754.19999999995
aF1813830
aF3406016
aF7726032
aF13752790
aF29235800
aF51506233.333333336
aF126433000
asS'block2_swap_avx'
p6
(lp7
F2852.8455000000004
aF13364.649999999998
aF13860.112500000003
aF61586.355000000003
aF168961.23999999999
aF324749.88
aF740248.09999999998
aF1359252.2
aF2581062
aF6626484
aF13219468
aF25334800
aF45853866.666666664
aF115550000
asS'block2'
p8
(lp9
F2598.1402500000008
aF13451.817999999999
aF14178.3855
aF61186.560000000012
aF169787.20000000001
aF313452.04999999999
aF773092.90000000002
aF1475064
aF2635644
aF6799428
aF12625144
aF30211600
aF52789366.666666664
aF116876000
asS'block2_swap'
p10
(lp11
F3048.9740000000002
aF14645.459500000001
aF14242.165000000003
aF64276.520000000004
aF167969.61000000002
aF307071.23999999999
aF751111.19999999995
aF1510044
aF2760376
aF6497698
aF12199140
aF29085833.333333332
aF48080833.333333336
aF119264666.66666667
asS'block4_swap_avx'
p12
(lp13
F2970.3525
aF12380.811
aF12942.735999999999
aF55713.559999999998
aF147364.16
aF267260.35999999999
aF648665.59999999998
aF1186227.2
aF2248212
aF6268478
aF12194136
aF24618066.666666668
aF43583733.333333336
aF110800333.33333333
asS'block2_sse'
p14
(lp15
F3692.8129999999992
aF20899.846500000003
aF21698.029999999999
aF101373.30000000002
aF292894.90000000002
aF516361.09999999998
aF1241752.3
aF2241028
aF4269608
aF9963192
aF15763698
aF33219633.333333332
aF56978500
aF137954000
asS'block8_swap_avx'
p16
(lp17
F2870.1260000000002
aF13975.297000000002
aF13599.866499999998
aF58714.385000000009
aF142558.89999999999
aF259854.92999999999
aF628545.09999999998
aF1233456
aF2143514
aF5195208
aF13749638
aF25619900
aF45820666.666666664
aF118955333.33333333
asS'sse'
p18
(lp19
F3403.46
aF19617.7045
aF19866.635000000002
aF94944.869999999995
aF265402.5
aF477565.90000000002
aF1123042.6000000001
aF2131162
aF3744756
aF8117330
aF14850320
aF31733933.333333332
aF53245066.666666664
aF132422333.33333333
asS'gurobi'
p20
(lp21
F209203.72
aF361104.70000000001
aF501733.79999999999
aF830090.75
aF1475156.2
aF2090530
aF4071825
aF7067689
aF17853320
aF31407560
aF61257100
aF92068500
aF171623666.66666666
aF305789000
asS'nta'
p22
(lp23
F3588.8394999999996
aF20089.365000000005
aF20463.720000000005
aF87308.374999999985
aF240329.10000000001
aF431151.5
aF1053448.3
aF2086433
aF3288728
aF7455422
aF13491258
aF29299466.666666668
aF52080966.666666664
aF133363000
asS'array'
p24
(lp25
F4247.9149999999991
aF22084.508999999998
aF23035.91
aF94906.590000000011
aF262484.20000000001
aF458404.90000000002
aF1033857.9
aF1972827
aF3332332
aF7991362
aF14980756
aF31517200
aF50216233.333333336
aF128433000
asS'ssa'
p26
(lp27
F2900.2280000000001
aF15308.933499999999
aF15428.989000000001
aF68099.785000000003
aF208216.5
aF363993.73999999999
aF892253.09999999998
aF1697157
aF2918032
aF6489248
aF13242278
aF26053766.666666668
aF46447233.333333336
aF116665000
asS'glpk'
p28
(lp29
F65286.355000000003
aF167257.5
aF189332.29999999999
aF440048.75
aF1088919.8
aF1601991.6000000001
aF3557421
aF7665043
aF22149160
aF41838540
aF71460060
aF108669533.33333333
aF215729666.66666666
aF356300666.66666669
asS'soplex'
p30
(lp31
F195480.95000000001
aF456340
aF517012.04999999999
aF972740.94999999995
aF1842254.2
aF2793989
aF5155672
aF8733377
aF14340760
aF34185540
aF56320620
aF93862866.666666672
aF146095000
aF385715666.66666669
as.