(dp1
S'avx'
p2
(lp3
F0.68745849999999986
aF0.94109964999999995
aF0.94939884999999991
aF0.98858300000000021
aF1.0542050000000001
aF1.0561510000000001
aF1.0138769000000001
aF0.96960899999999994
aF0.88029220000000008
aF0.82719919999999991
aF0.74884240000000002
aF0.74492366666666665
aF0.74532866666666664
aF0.7220713333333334
asS'baseline'
p4
(lp5
F0.36637569999999997
aF0.40613290000000007
aF0.5236727000000001
aF0.64742850000000018
aF0.75774920000000001
aF0.80512349999999999
aF0.82987850000000007
aF0.82747080000000006
aF0.7969948
aF0.70548999999999995
aF0.63824880000000006
aF0.6581123333333333
aF0.64390199999999997
aF0.66481399999999991
asS'block2_swap_avx'
p6
(lp7
F0.66684260000000006
aF0.97326004999999982
aF1.0277750000000003
aF1.1416854999999999
aF1.2108249999999998
aF1.1990274000000001
aF1.1802690000000002
aF1.1353286
aF1.0527634000000001
aF0.84091400000000005
aF0.67592760000000007
aF0.76184433333333335
aF0.73978333333333335
aF0.73136599999999996
asS'block2'
p8
(lp9
F0.71924375000000007
aF0.97682034999999989
aF0.98180215000000004
aF1.1464515
aF1.19777
aF1.1926000000000001
aF1.1188282000000001
aF1.0497714999999999
aF1.027873
aF0.81944640000000002
aF0.7236262
aF0.65890899999999997
aF0.64031899999999997
aF0.72447666666666655
asS'block2_swap'
p10
(lp11
F0.61430155000000009
aF0.89210289999999992
aF0.97173145000000005
aF1.0937825000000001
aF1.2117240000000002
aF1.220842
aF1.1653960000000001
aF1.0255611999999998
aF0.98092039999999991
aF0.87275840000000005
aF0.74864819999999999
aF0.67566300000000001
aF0.70734300000000017
aF0.70835433333333331
asS'block4_swap_avx'
p12
(lp13
F0.64159884999999994
aF1.0545904000000001
aF1.0655154499999999
aF1.2579585000000002
aF1.3828660000000002
aF1.3729649999999998
aF1.355645
aF1.304146
aF1.2012500000000002
aF0.89164860000000012
aF0.74166980000000005
aF0.79218066666666676
aF0.777949
aF0.76534433333333329
asS'block2_sse'
p14
(lp15
F0.50569589999999986
aF0.62928004999999998
aF0.63981155000000012
aF0.69270754999999984
aF0.69569579999999998
aF0.71112120000000001
aF0.70456489999999994
aF0.68984010000000007
aF0.64010099999999992
aF0.56708440000000004
aF0.57307600000000003
aF0.58365699999999998
aF0.59524166666666678
aF0.61454966666666666
asS'block8_swap_avx'
p16
(lp17
F0.65490835000000003
aF0.93059310000000006
aF1.01992715
aF1.1944749999999997
aF1.427772
aF1.4214420000000001
aF1.3923539999999999
aF1.2927021000000001
aF1.2508760000000001
aF1.0786199999999999
aF0.65288679999999999
aF0.7579853333333334
aF0.74061833333333327
aF0.71162233333333325
asS'sse'
p18
(lp19
F0.5497164000000001
aF0.6712604499999999
aF0.69319319999999995
aF0.73815109999999995
aF0.7680018999999999
aF0.77399890000000005
aF0.78132979999999996
aF0.76343400000000006
aF0.72879340000000004
aF0.69325479999999995
aF0.60894360000000003
aF0.61876299999999995
aF0.63492266666666675
aF0.63796333333333333
asS'gurobi'
p20
(lp21
F0.0066685094999999984
aF0.024612204999999998
aF0.028227729999999999
aF0.067590684999999984
aF0.11997740000000001
aF0.15617234000000002
aF0.20241476
aF0.21516209999999997
aF0.14822050000000001
aF0.173517
aF0.14208612000000001
aF0.20813833333333331
aF0.19359466666666666
aF0.27455466666666667
asS'nta'
p22
(lp23
F0.52630460000000012
aF0.65619684999999994
aF0.67559999999999998
aF0.80363509999999994
aF0.84621449999999998
aF0.85556969999999999
aF0.83482619999999996
aF0.78510049999999987
aF0.81994479999999981
aF0.74583400000000011
aF0.66569020000000001
aF0.66414033333333333
aF0.65185333333333328
aF0.63372966666666664
asS'array'
p24
(lp25
F0.44251220000000002
aF0.60494150000000002
aF0.61034405000000003
aF0.73917604999999997
aF0.77973359999999992
aF0.8044060999999999
aF0.84536009999999995
aF0.79736890000000005
aF0.80873039999999996
aF0.7079896
aF0.59862439999999995
aF0.62274866666666673
aF0.67565566666666665
aF0.66133599999999992
asS'ssa'
p26
(lp27
F0.64192129999999992
aF0.86509709999999984
aF0.89670430000000001
aF1.030376
aF1.0093429999999999
aF0.99871439999999989
aF0.98735899999999999
aF0.95079159999999996
aF0.92636640000000003
aF0.86249819999999988
aF0.68389100000000003
aF0.74499666666666664
aF0.73079433333333332
aF0.72574166666666662
asS'glpk'
p28
(lp29
F0.0189261945
aF0.051457390000000006
aF0.069899785000000006
aF0.12489843500000004
aF0.15546729999999997
aF0.19723499
aF0.22581889999999999
aF0.19525169999999997
aF0.11899838
aF0.12804112000000001
aF0.12229348
aF0.17533600000000002
aF0.153665
aF0.23529066666666668
asS'soplex'
p30
(lp31
F0.007251645499999999
aF0.022465373999999993
aF0.029540624999999997
aF0.069542949999999992
aF0.099795559999999991
aF0.11607187999999999
aF0.16155053
aF0.18011040000000003
aF0.18975800000000001
aF0.16228759999999998
aF0.17296722
aF0.20386733333333332
aF0.22841466666666665
aF0.24299699999999999
as.