(dp1
S'avx'
p2
(lp3
F1.1280889999999997e-06
aF5.0904300000000008e-06
aF5.3099124999999998e-06
aF2.5753712000000003e-05
aF6.9398450000000006e-05
aF0.00012489066999999998
aF0.00031007190000000007
aF0.00057917500000000013
aF0.0011442500000000001
aF0.0024800999999999998
aF0.0044636999999999993
aF0.0093886666666666667
aF0.016282666666666664
aF0.041981999999999998
asS'baseline'
p4
(lp5
F1.5484307499999998e-06
aF8.4008810000000009e-06
aF9.8840774999999992e-06
aF3.3717965000000002e-05
aF8.2181170000000017e-05
aF0.00014718266000000001
aF0.00035664989999999999
aF0.00064955000000000015
aF0.0012197
aF0.0027663999999999996
aF0.0049243000000000004
aF0.010466333333333334
aF0.018438
aF0.045258666666666669
asS'block2_swap_avx'
p6
(lp7
F1.1272892499999997e-06
aF4.889407000000001e-06
aF5.0720229999999995e-06
aF2.21636785e-05
aF6.0628120000000005e-05
aF0.00011638969000000001
aF0.00026519687999999994
aF0.00048672500000000003
aF0.00092435
aF0.0023728
aF0.0047331999999999999
aF0.0090696666666666668
aF0.016414666666666664
aF0.041362666666666666
asS'block2'
p8
(lp9
F1.0343625000000001e-06
aF4.9232890000000007e-06
aF5.1966300000000008e-06
aF2.2013092000000003e-05
aF6.0898440000000002e-05
aF0.00011233990000000002
aF0.00027692197000000004
aF0.0005282625
aF0.00094370000000000012
aF0.0024345
aF0.0045199000000000003
aF0.010815666666666668
aF0.018897666666666667
aF0.041837666666666662
asS'block2_swap'
p10
(lp11
F1.1929126500000004e-06
aF5.3481459999999988e-06
aF5.1939455000000007e-06
aF2.3116793499999994e-05
aF6.0256250000000004e-05
aF0.00011006878999999998
aF0.00026904990000000003
aF0.00054072500000000004
aF0.00098845000000000009
aF0.0023266000000000003
aF0.0043676000000000001
aF0.010412333333333334
aF0.017211666666666663
aF0.042692000000000001
asS'block4_swap_avx'
p12
(lp13
F1.1682989500000001e-06
aF4.5358384999999993e-06
aF4.7416014999999996e-06
aF2.0050005499999998e-05
aF5.2871859999999995e-05
aF9.5833639999999993e-05
aF0.0002323843
aF0.00042473750000000002
aF0.00080495000000000013
aF0.0022443000000000003
aF0.0043658000000000004
aF0.0088133333333333327
aF0.015601999999999998
aF0.039662333333333334
asS'block2_sse'
p14
(lp15
F1.42635505e-06
aF7.5822759999999996e-06
aF7.8752964999999994e-06
aF3.6400579999999997e-05
aF0.00010504371
aF0.00018495615000000001
aF0.00044476250000000003
aF0.00080249999999999994
aF0.001529
aF0.0035672000000000004
aF0.0056436000000000004
aF0.011891666666666667
aF0.020396999999999998
aF0.049382000000000002
asS'block8_swap_avx'
p16
(lp17
F1.1333132e-06
aF5.1198254999999994e-06
aF4.975877999999999e-06
aF2.1157814499999999e-05
aF5.1134349999999999e-05
aF9.3135180000000008e-05
aF0.00022519388999999991
aF0.00044173750000000005
aF0.00076760000000000001
aF0.0018602500000000001
aF0.0049226000000000001
aF0.0091716666666666665
aF0.016402666666666666
aF0.042581666666666664
asS'sse'
p18
(lp19
F1.3183106499999998e-06
aF7.1404275000000005e-06
aF7.218944e-06
aF3.4116809999999999e-05
aF9.5156160000000006e-05
aF0.00017113426999999998
aF0.000402175
aF0.00076302499999999986
aF0.0013408000000000001
aF0.0029062000000000003
aF0.0053166999999999997
aF0.011360666666666666
aF0.019060333333333335
aF0.047401666666666668
asS'gurobi'
p20
(lp21
F7.5088264999999995e-05
aF0.000129456315
aF0.00017981875000000003
aF0.00029738440000000001
aF0.00052822500000000001
aF0.0007485250000000001
aF0.00145795
aF0.0025303500000000002
aF0.0063911999999999997
aF0.011242800000000001
aF0.021927800000000001
aF0.032956666666666669
aF0.061433666666666664
aF0.10945833333333332
asS'nta'
p22
(lp23
F1.3898441999999998e-06
aF7.3034679999999996e-06
aF7.4382799999999999e-06
aF3.1375000000000004e-05
aF8.6123339999999999e-05
aF0.00015448270999999998
aF0.00037736870000000002
aF0.00074715000000000003
aF0.0011775999999999998
aF0.0026695
aF0.0048304000000000003
aF0.010489333333333335
aF0.018643666666666666
aF0.047738666666666672
asS'array'
p24
(lp25
F1.6263546500000002e-06
aF8.0071815000000013e-06
aF8.3585915000000017e-06
aF3.4105079999999998e-05
aF9.4112460000000001e-05
aF0.00016427978999999999
aF0.00037023739999999996
aF0.0007065000000000001
aF0.0011931499999999998
aF0.0028611999999999999
aF0.0053633999999999999
aF0.011282666666666665
aF0.017976333333333334
aF0.045974666666666664
asS'ssa'
p26
(lp27
F1.14245025e-06
aF5.5837425e-06
aF5.6391610000000001e-06
aF2.4490828500000001e-05
aF7.4674980000000011e-05
aF0.00013055624
aF0.0003196532
aF0.00060787500000000013
aF0.0010448500000000002
aF0.0023238999999999998
aF0.0047410000000000004
aF0.0093266666666666654
aF0.016626666666666665
aF0.041762000000000001
asS'glpk'
p28
(lp29
F2.3504684999999994e-05
aF6.0036674999999992e-05
aF6.7961724999999999e-05
aF0.00015769205000000001
aF0.000389925
aF0.00057370000000000001
aF0.001273775
aF0.0027442499999999997
aF0.0079293999999999996
aF0.014977200000000001
aF0.025580000000000002
aF0.038899666666666666
aF0.077222666666666662
aF0.12754000000000001
asS'soplex'
p30
(lp31
F7.0154680000000013e-05
aF0.00016356878
aF0.00018532643500000003
aF0.00034841560000000002
aF0.00065972499999999989
aF0.00100045
aF0.00184615
aF0.0031265999999999993
aF0.0051343999999999999
aF0.0122378
aF0.020160999999999998
aF0.033598999999999997
aF0.052295666666666664
aF0.13806933333333332
as.