(dp1
S'avx'
p2
(lp3
F2607.4234399999991
aF11170.878700000001
aF18784.2104
aF73966.052000000025
aF186916.46999999994
aF278639.29999999999
aF714969.44999999995
aF1330585.1000000001
aF4524757
aF10565167
aF14683338
aF25179620
aF34783366.666666664
aF78456100
aF207751666.66666666
aF439418333.33333331
asS'baseline'
p4
(lp5
F2740.7881000000011
aF13407.015500000003
aF28528.546400000007
aF80456.224000000017
aF207664.68333333329
aF321182.5
aF806875.90000000002
aF1471619.2
aF5544395
aF11113752
aF16023280
aF27686220
aF38253266.666666664
aF86853333.333333328
aF221672666.66666666
aF464295333.33333331
asS'block2x4_swap'
p6
(lp7
F2735.5980999999992
aF11107.734100000003
aF17689.131600000001
aF63398.246000000006
aF158315.14999999999
aF233440.54999999999
aF623936.40000000002
aF1179370.45
aF4228447
aF9988080
aF14667360
aF25136360
aF35904366.666666664
aF79152400
aF198236000
aF410705333.33333331
asS'block2x4'
p8
(lp9
F2555.7644
aF10460.815699999999
aF16981.224399999999
aF59740.47800000001
aF156346.87666666668
aF232175.45000000001
aF627952.09999999998
aF1171448.1000000001
aF4143238
aF10217862
aF14214606
aF24436240
aF35269133.333333336
aF79666200
aF196977000
aF413362666.66666669
asS'sse'
p10
(lp11
F3297.7617
aF15168.827599999993
aF25688.956400000003
aF97719.394000000029
aF254097.76333333331
aF377757.40000000002
aF919042.19999999995
aF1661008.3999999999
aF5839374
aF12934861
aF17362440
aF29851000
aF40878000
aF89487533.333333328
aF225501666.66666666
aF475568333.33333331
asS'nta'
p12
(lp13
F3885.9948999999992
aF17617.833599999991
aF29593.968399999998
aF97412.337999999974
aF244961.69
aF357327
aF867049.5
aF1579731.75
aF5672558
aF12994304
aF17186620
aF28541360
aF39337300
aF87879033.333333328
aF226234333.33333334
aF466722333.33333331
asS'array'
p14
(lp15
F3805.7321999999999
aF17321.711199999991
aF29275.017800000001
aF96979.894
aF242465.42333333334
aF356925.25
aF865925.80000000005
aF1563902.1000000001
aF5487172
aF11904219
aF16828300
aF28085280
aF38304666.666666664
aF87746600
aF220830000
aF469955333.33333331
asS'ssa'
p16
(lp17
F2726.1314999999995
aF11832.276699999989
aF19673.008200000004
aF71005.878000000012
aF189378.51333333334
aF281221.29999999999
aF726889.30000000005
aF1319177.8
aF4729601
aF10704534
aF15508420
aF25223160
aF35194366.666666664
aF81208633.333333328
aF209644666.66666666
aF452375666.66666669
as.