(dp1
S'avx'
p2
(lp3
F0.6940807099999996
aF0.93385601999999945
aF0.96330243999999976
aF0.98598434000000024
aF1.0483416666666669
aF1.0572244999999998
aF1.0112762999999998
aF0.96668334999999994
aF0.97507379999999999
aF0.82102750000000013
aF0.74410080000000001
aF0.72756779999999999
aF0.75505766666666663
aF0.73845966666666663
aF0.70856399999999997
aF0.71798933333333326
asS'baseline'
p4
(lp5
F0.45300086999999989
aF0.51466214000000032
aF0.61174516000000001
aF0.72000124000000032
aF0.80012090000000002
aF0.82743670000000002
aF0.84717310000000001
aF0.84743355000000009
aF0.82489669999999982
aF0.74970000000000003
aF0.66478939999999997
aF0.65285139999999997
aF0.6731029999999999
aF0.65904533333333337
aF0.66534133333333345
aF0.67647900000000005
asS'block2x4_swap'
p6
(lp7
F0.65189443999999985
aF0.93797369999999991
aF1.0173612400000001
aF1.1449933999999999
aF1.2390506666666667
aF1.260877
aF1.167748
aF1.0861607
aF1.0395348
aF0.86028939999999987
aF0.73868520000000004
aF0.73427160000000002
aF0.71376633333333339
aF0.72930099999999998
aF0.74538233333333326
aF0.77385800000000005
asS'block2x4'
p8
(lp9
F0.76315312000000002
aF1.04566614
aF1.0926314600000002
aF1.2390730000000003
aF1.2683846666666667
aF1.2792505000000001
aF1.1719030000000001
aF1.1027089999999999
aF1.0613111
aF0.85690309999999992
aF0.76534360000000001
aF0.75630140000000001
aF0.74480633333333335
aF0.72466766666666682
aF0.75078933333333342
aF0.76262866666666673
asS'sse'
p10
(lp11
F0.54894661
aF0.68778151999999981
aF0.70448815999999992
aF0.74380015999999982
aF0.77084740000000018
aF0.78008715000000006
aF0.78813064999999993
aF0.77684409999999993
aF0.75986329999999991
aF0.67787559999999991
aF0.62693219999999994
aF0.62224999999999997
aF0.65082266666666666
aF0.64665833333333333
aF0.65292266666666665
aF0.66734933333333346
asS'nta'
p12
(lp13
F0.45971078999999998
aF0.59392352000000048
aF0.60873421999999988
aF0.74703134000000004
aF0.80388690000000018
aF0.82480130000000007
aF0.83752065000000009
aF0.81174325000000014
aF0.79337420000000014
aF0.69758890000000007
aF0.63527299999999998
aF0.64592959999999999
aF0.67220099999999994
aF0.65675933333333336
aF0.65142133333333341
aF0.67925099999999994
asS'array'
p14
(lp15
F0.47008753999999997
aF0.60267821000000021
aF0.61538104000000005
aF0.74877436000000008
aF0.80976113333333344
aF0.82559824999999998
aF0.83844780000000019
aF0.8218941500000001
aF0.81028059999999991
aF0.72826599999999997
aF0.64811759999999996
aF0.64827800000000002
aF0.68309033333333335
aF0.65849866666666668
aF0.66779733333333324
aF0.67456733333333341
asS'ssa'
p16
(lp17
F0.65239247999999972
aF0.88014263000000037
aF0.91400012000000008
aF1.0240215000000001
aF1.0386155333333336
aF1.0484930000000001
aF0.99852620000000003
aF0.97450429999999988
aF0.95665929999999988
aF0.80843970000000009
aF0.70764799999999994
aF0.72577459999999994
aF0.7449433333333334
aF0.71279366666666666
aF0.70368900000000012
aF0.69797166666666666
as.