(dp1
S'avx'
p2
(lp3
F1.0345038200000001e-06
aF4.1012820999999973e-06
aF6.8289529999999991e-06
aF2.6592603600000005e-05
aF6.704305333333333e-05
aF9.9867860000000004e-05
aF0.00025610477999999997
aF0.00047650275000000005
aF0.0016199804000000002
aF0.0037825179999999999
aF0.0052567480000000003
aF0.0090138259999999991
aF0.012451666666666666
aF0.028084666666666664
aF0.074367000000000003
aF0.15729266666666666
asS'baseline'
p4
(lp5
F1.0833813800000007e-06
aF4.9019562000000002e-06
aF1.0316779799999998e-05
aF2.8901849999999998e-05
aF7.4452286666666653e-05
aF0.00011512470500000002
aF0.00028900560000000004
aF0.00052702730000000011
aF0.0019851459000000001
aF0.0039788489999999996
aF0.0057362479999999993
aF0.0099114000000000008
aF0.013693956666666666
aF0.031090666666666666
aF0.079349666666666666
aF0.16619766666666666
asS'block2x4_swap'
p6
(lp7
F1.08123312e-06
aF4.0778560999999999e-06
aF6.4374333999999996e-06
aF2.2808673400000003e-05
aF5.6783243333333343e-05
aF8.3696869999999999e-05
aF0.00022352821000000005
aF0.00042233119999999998
aF0.0015138724
aF0.003575862
aF0.0052509260000000004
aF0.0089985240000000008
aF0.012852916666666665
aF0.028333500000000001
aF0.070960333333333334
aF0.14701500000000001
asS'block2x4'
p8
(lp9
F1.0166108500000001e-06
aF3.8461788999999998e-06
aF6.1814328000000002e-06
aF2.1496712000000003e-05
aF5.6083906666666676e-05
aF8.3230620000000004e-05
aF0.00022496246000000002
aF0.00041950664999999994
aF0.0014833505999999998
aF0.0036582820000000001
aF0.0050889739999999996
aF0.0087480260000000008
aF0.0126255
aF0.028517666666666667
aF0.070510000000000003
aF0.14796633333333334
asS'sse'
p10
(lp11
F1.2821141299999998e-06
aF5.5330470999999987e-06
aF9.2988633999999985e-06
aF3.5094833999999994e-05
aF9.1074086666666657e-05
aF0.00013536719499999999
aF0.00032917647
aF0.00059473139999999996
aF0.002090583
aF0.0046307750000000002
aF0.0062155999999999999
aF0.010686225999999998
aF0.014633333333333333
aF0.032033499999999999
aF0.080720333333333338
aF0.17023266666666667
asS'nta'
p12
(lp13
F1.4934241900000005e-06
aF6.4090402000000018e-06
aF1.0700164199999999e-05
aF3.4991675999999993e-05
aF8.7809116666666656e-05
aF0.00012804135500000003
aF0.00031056192500000004
aF0.00056567575000000001
aF0.0020308738999999998
aF0.0046521070000000008
aF0.0061527739999999997
aF0.010217374000000001
aF0.014081623333333333
aF0.031457166666666668
aF0.080982666666666661
aF0.16706633333333334
asS'array'
p14
(lp15
F1.4649474599999995e-06
aF6.3014798000000018e-06
aF1.0585845399999997e-05
aF3.4829982000000008e-05
aF8.6915576666666639e-05
aF0.00012788069500000002
aF0.00031014137500000002
aF0.00055999569999999989
aF0.0019645306999999997
aF0.0042618050000000005
aF0.0060244000000000001
aF0.010054074000000001
aF0.013712126666666666
aF0.031410166666666663
aF0.079047666666666669
aF0.16822366666666669
asS'ssa'
p16
(lp17
F1.0777157499999994e-06
aF4.3384570999999999e-06
aF7.1464993999999988e-06
aF2.5527757400000002e-05
aF6.7906016666666674e-05
aF0.00010079331000000002
aF0.00026037855499999997
aF0.00047240305000000005
aF0.0016933124999999999
aF0.0038324000000000006
aF0.0055519499999999999
aF0.0090295999999999987
aF0.012598459999999999
aF0.029069999999999999
aF0.075044333333333338
aF0.16193099999999999
as.