(dp1
S'avx'
p2
(lp3
F3910.4659999999994
aF10608.763999999999
aF24767.420000000002
aF77577.799999999988
aF148511.60000000001
aF312558.33333333331
aF583343.66666666663
aF1841730
aF3548083.3333333335
aF15441866.666666666
aF11086940
aF16989800
aF42601200
aF56598000
asS'baseline'
p4
(lp5
F5167.902
aF8157.9119999999994
aF20368.32
aF47995.600000000006
aF94865.199999999997
aF218478
aF404944.33333333331
aF1347770
aF2600660
aF10712200
aF9015705
aF17254650
aF37848100
aF51400700
asS'block2_swap_avx'
p6
(lp7
F3700.3620000000001
aF9078.9259999999995
aF20985.52
aF67187.37999999999
aF128104.60000000001
aF281675.33333333331
aF474656
aF1522966.6666666667
aF2930946.6666666665
aF13028866.666666666
aF9860710
aF16572900
aF46602800
aF55295100
asS'block2'
p8
(lp9
F2972.3939999999998
aF7049.7020000000002
aF16306.616
aF46095.599999999999
aF90176.779999999999
aF187212.66666666666
aF387233.66666666669
aF1241470
aF2541036.6666666665
aF11653800
aF9542425
aF15517750
aF40951100
aF52640100
asS'block2_swap'
p10
(lp11
F3312.1240000000007
aF7426.25
aF16098.385999999999
aF44468.959999999999
aF83573.059999999998
aF185335
aF364627
aF1384660
aF2577740
aF11223300
aF8820240
aF15475300
aF44554600
aF52579800
asS'block4_swap_avx'
p12
(lp13
F3371.5999999999999
aF8248.1539999999986
aF18965.062000000002
aF57775.699999999997
aF111507.62
aF236486.66666666666
aF421915.33333333331
aF1359510
aF2669786.6666666665
aF12117000
aF9907900
aF16258300
aF41413100
aF57674400
asS'block2_sse'
p14
(lp15
F4852.4319999999998
aF14798.399999999998
aF37159.520000000004
aF112052.63999999998
aF223896.20000000001
aF473548.66666666669
aF806686
aF2709163.3333333335
aF5424010
aF20481233.333333332
aF14221350
aF22728850
aF52655400
aF66631000
asS'block8_swap_avx'
p16
(lp17
F3573.114
aF8052.0160000000005
aF17943.694
aF60612.340000000004
aF105911.62
aF235126
aF411799
aF1382513.3333333333
aF2591186.6666666665
aF12894400
aF11432870
aF16362800
aF42365300
aF60191000
asS'sse'
p18
(lp19
F5038.6659999999993
aF14119.460000000001
aF32644.079999999998
aF103630.34
aF209994.20000000001
aF435786.66666666669
aF740612.66666666663
aF2306326.6666666665
aF4424120
aF17791133.333333332
aF13160900
aF19537850
aF48595300
aF64493700
asS'gurobi'
p20
(lp21
F235226.79999999999
aF342482.20000000001
aF497084
aF903479
aF1490450
aF2412170
aF3703836.6666666665
aF8134203.333333333
aF19654500
aF29384333.333333332
aF62777400
aF81542450
aF165100000
aF327011000
asS'nta'
p22
(lp23
F3319.6380000000004
aF7670.3000000000002
aF18178.91
aF52092.819999999992
aF105531.36000000002
aF221088.66666666666
aF432012
aF1478750
aF2695016.6666666665
aF11932733.333333334
aF10330040
aF15402550
aF39606900
aF57213500
asS'array'
p24
(lp25
F3505.6300000000001
aF8005.8339999999998
aF18255.34
aF53462.320000000007
aF106989.68000000001
aF222357.66666666666
aF419738.66666666669
aF1358626.6666666667
aF3025346.6666666665
aF12749033.333333334
aF12025285
aF15403150
aF39620800
aF51970700
asS'ssa'
p26
(lp27
F3330.7179999999998
aF7816.4660000000003
aF18391.552000000003
aF57572.719999999994
aF108258.92
aF224289.66666666666
aF434622.33333333331
aF1438403.3333333333
aF2730543.3333333335
aF13639000
aF11428290
aF15458550
aF39773800
aF52189600
asS'glpk'
p28
(lp29
F78837.48000000001
aF135058
aF233765.20000000001
aF484982.59999999998
aF840962.40000000002
aF1482496.6666666667
aF2856026.6666666665
aF7403123.333333333
aF22821466.666666668
aF48744700
aF70681550
aF99666450
aF171086000
aF313964000
asS'soplex'
p30
(lp31
F301774
aF259744.60000000001
aF698508.19999999995
aF1270318
aF1593298
aF2911763.3333333335
aF3734543.3333333335
aF6954326.666666667
aF15790233.333333334
aF41111733.333333336
aF44157800
aF68714600
aF176744000
aF189361000
as.