(dp1
S'avx'
p2
(lp3
F1.5003908000000002e-06
aF3.9066399999999994e-06
aF8.999614000000001e-06
aF2.7913299999999999e-05
aF5.325e-05
aF0.00011197916666666665
aF0.000208958
aF0.00065958333333333331
aF0.0012704999999999999
aF0.005528333333333333
aF0.0039699999999999996
aF0.0060824999999999994
aF0.015251000000000001
aF0.02026
asS'baseline'
p4
(lp5
F2.0244156000000003e-06
aF3.045704e-06
aF7.4379060000000001e-06
aF1.7338275999999997e-05
aF3.407188e-05
aF7.8406333333333328e-05
aF0.00014513533333333336
aF0.00048266666666666667
aF0.00093133333333333338
aF0.0038353333333333334
aF0.0032277500000000002
aF0.0061775000000000007
aF0.013549
aF0.0184
asS'block2_swap_avx'
p6
(lp7
F1.4295882e-06
aF3.3515620000000005e-06
aF7.6144579999999998e-06
aF2.4146099999999999e-05
aF4.5990620000000001e-05
aF0.00010105216666666667
aF0.00017003133333333333
aF0.00054549999999999998
aF0.0010494166666666666
aF0.0046636666666666667
aF0.0035304999999999998
aF0.0059334999999999995
aF0.016683
aF0.019793999999999999
asS'block2'
p8
(lp9
F1.1677724000000001e-06
aF2.6251959999999998e-06
aF5.9667979999999997e-06
aF1.6618763999999999e-05
aF3.2385939999999994e-05
aF6.7130200000000003e-05
aF0.00013878106666666667
aF0.00044454166666666665
aF0.00091000000000000011
aF0.0041723333333333334
aF0.0034167500000000001
aF0.0055560000000000002
aF0.014659999999999999
aF0.018844
asS'block2_swap'
p10
(lp11
F1.2917972000000001e-06
aF2.7638660000000002e-06
aF5.8701180000000008e-06
aF1.6053894000000003e-05
aF3.0026580000000003e-05
aF6.6520833333333322e-05
aF0.0001307917
aF0.00049587500000000011
aF0.00092299999999999988
aF0.0040179999999999999
aF0.0031579999999999998
aF0.0055405000000000003
aF0.015949999999999999
aF0.018821999999999998
asS'block4_swap_avx'
p12
(lp13
F1.3005850000000001e-06
aF3.059374e-06
aF6.9097819999999994e-06
aF2.078362e-05
aF4.0028119999999999e-05
aF8.4765466666666674e-05
aF0.0001511146
aF0.00048695833333333333
aF0.00095575
aF0.0043376666666666668
aF0.00354675
aF0.0058199999999999997
aF0.014825
aF0.020645
asS'block2_sse'
p14
(lp15
F1.8475600000000003e-06
aF5.4378899999999994e-06
aF1.3435155999999999e-05
aF4.02703e-05
aF8.03e-05
aF0.00016970833333333334
aF0.00028902066666666666
aF0.00097016666666666659
aF0.0019414999999999999
aF0.0073323333333333331
aF0.005091
aF0.0081370000000000001
aF0.018849000000000001
aF0.023852000000000002
asS'block8_swap_avx'
p16
(lp17
F1.3915041999999999e-06
aF2.9923840000000003e-06
aF6.5281300000000006e-06
aF2.1834380000000001e-05
aF3.8037480000000002e-05
aF8.4328033333333336e-05
aF0.0001475104
aF0.00049520833333333329
aF0.00092766666666666659
aF0.0046159999999999994
aF0.0040932499999999997
aF0.0058574999999999999
aF0.015166000000000001
aF0.021545999999999999
asS'sse'
p18
(lp19
F1.9059579999999997e-06
aF5.1867179999999999e-06
aF1.1785566000000001e-05
aF3.7221880000000002e-05
aF7.5293720000000009e-05
aF0.000156219
aF0.00026525000000000002
aF0.00082583333333333337
aF0.0015836666666666666
aF0.0063689999999999997
aF0.0047115000000000004
aF0.0069944999999999998
aF0.017395999999999998
aF0.023087
asS'gurobi'
p20
(lp21
F8.437497999999999e-05
aF0.0001227752
aF0.00017814979999999998
aF0.00032359999999999995
aF0.000533775
aF0.00086366666666666666
aF0.0013260000000000001
aF0.0029120000000000001
aF0.0070360000000000006
aF0.010519000000000001
aF0.022471499999999998
aF0.029188499999999999
aF0.059097999999999998
aF0.11705500000000001
asS'nta'
p22
(lp23
F1.2913068000000001e-06
aF2.8535179999999999e-06
aF6.6203160000000004e-06
aF1.8656244e-05
aF3.7925e-05
aF7.9333233333333335e-05
aF0.00015477066666666668
aF0.00052958333333333329
aF0.00096508333333333342
aF0.0042720000000000006
aF0.0036987499999999998
aF0.0055145000000000003
aF0.014178
aF0.020480999999999999
asS'array'
p24
(lp25
F1.3614267999999998e-06
aF2.9716780000000001e-06
aF6.6431740000000016e-06
aF1.9274998000000002e-05
aF3.8418760000000003e-05
aF7.9750166666666661e-05
aF0.00015048933333333334
aF0.00048637500000000005
aF0.0010831666666666665
aF0.0045639999999999995
aF0.00430525
aF0.0055149999999999999
aF0.014182999999999999
aF0.018603999999999999
asS'ssa'
p26
(lp27
F1.2985836000000002e-06
aF2.900194e-06
aF6.6980479999999989e-06
aF2.076642e-05
aF3.8878139999999999e-05
aF8.0505299999999996e-05
aF0.00015583333333333334
aF0.00051504166666666669
aF0.0009777500000000001
aF0.0048830000000000002
aF0.0040912499999999994
aF0.005535
aF0.014238000000000001
aF0.018683000000000002
asS'glpk'
p28
(lp29
F2.8359379999999997e-05
aF4.8465619999999994e-05
aF8.3843659999999995e-05
aF0.00017371219999999998
aF0.00030117499999999999
aF0.00053091666666666662
aF0.0010226666666666667
aF0.0026508333333333336
aF0.0081699999999999984
aF0.017449333333333334
aF0.025301500000000001
aF0.035677
aF0.061240999999999997
aF0.112385
asS'soplex'
p30
(lp31
F0.00010822189999999999
aF9.3374999999999993e-05
aF0.00025018740000000005
aF0.00045498739999999999
aF0.00057059999999999999
aF0.0010427500000000001
aF0.0013369999999999999
aF0.0024895
aF0.0056529999999999992
aF0.014716666666666668
aF0.015807000000000002
aF0.024597500000000001
aF0.063266000000000003
aF0.067782999999999996
as.