(dp1
S'gurobi'
p2
(lp3
F0.21155300000000007
aF0.22985267999999992
aF0.23614552
aF0.24164559999999993
aF0.24473233333333333
aF0.24581049999999999
aF0.24716840000000001
aF0.24790415000000002
aF0.24862600000000001
aF0.24897260000000002
aF0.24917799999999998
aF0.24931500000000001
aF0.24946733333333335
aF0.24959366666666669
aF0.24973033333333336
aF0.24979766666666667
asS'baseline'
p4
(lp5
F0.21155300000000007
aF0.22985267999999992
aF0.23614552
aF0.24164559999999993
aF0.24473233333333333
aF0.24581049999999999
aF0.24716840000000001
aF0.24790415000000002
aF0.24862600000000001
aF0.24897260000000002
aF0.24917799999999998
aF0.24931500000000001
aF0.24946733333333335
aF0.24959366666666669
aF0.24973033333333336
aF0.24979766666666667
asS'glpk'
p6
(lp7
F0.21155300000000007
aF0.22985267999999992
aF0.23614552
aF0.24164559999999993
aF0.24473233333333333
aF0.24581049999999999
aF0.24716840000000001
aF0.24790415000000002
aF0.24862600000000001
aF0.24897260000000002
aF0.24917799999999998
aF0.24931500000000001
aF0.24946733333333335
aF0.24959366666666669
aF0.24973033333333336
aF0.24979766666666667
asS'soplex'
p8
(lp9
F0.21155300000000007
aF0.22985267999999992
aF0.23614552
aF0.24164559999999993
aF0.24473233333333333
aF0.24581049999999999
aF0.24716840000000001
aF0.24790415000000002
aF0.24862600000000001
aF0.24897260000000002
aF0.24917799999999998
aF0.24931500000000001
aF0.24946733333333335
aF0.24959366666666669
aF0.24973033333333336
aF0.24979766666666667
as.