(dp1
S'gurobi'
p2
(lp3
F187107.24299999996
aF317036.72999999998
aF492855.34000000003
aF862230.80000000005
aF1548591.9333333333
aF2261034.5
aF4115389.5
aF7435194
aF16543040
aF32953600
aF55718020
aF93300880
aF185580666.66666666
aF295888666.66666669
aF659450666.66666663
aF1293586666.6666667
asS'baseline'
p4
(lp5
F1878.4119800000001
aF7327.9178000000029
aF15282.232400000001
aF43021.781999999999
aF123338.13666666667
aF185414.14999999999
aF514109.59999999998
aF968302
aF3416158
aF8018279
aF11570036
aF22698200
aF33478886.666666668
aF72681733.333333328
aF202662333.33333334
aF464142333.33333331
asS'glpk'
p6
(lp7
F65140.886000000006
aF141394.23700000002
aF228548.35999999999
aF447340.59999999998
aF1070206.6333333333
aF1536544
aF3431258
aF7738943.5
aF23914500
aF45550050
aF75356740
aF107810780
aF196677666.66666666
aF343408000
aF804662333.33333337
aF1433343333.3333333
asS'soplex'
p8
(lp9
F181283.10000000001
aF406645.39000000001
aF638531.80000000005
aF1111701.5800000001
aF2080948
aF3034468.5
aF5022730
aF7655147
aF18202206
aF31549800
aF36781580
aF55929080
aF108173766.66666667
aF271996000
aF602751333.33333337
aF1316995666.6666667
as.