(dp1
S'gurobi'
p2
(lp3
F0.0068236392000000038
aF0.0223553173
aF0.0365360484
aF0.069005632000000011
aF0.11063632999999996
aF0.12168123999999995
aF0.170498335
aF0.17298269000000002
aF0.26762169999999996
aF0.25251151999999999
aF0.18841380000000002
aF0.20069287999999999
aF0.1345973
aF0.19321966666666665
aF0.22319233333333333
aF0.23241299999999998
asS'baseline'
p4
(lp5
F0.65855520999999995
aF0.94426604999999952
aF1.1440712600000003
aF1.3439346000000003
aF1.3556637666666667
aF1.4324104999999998
aF1.33325
aF1.2833259499999996
aF1.2761
aF1.0499656000000002
aF0.9194466
aF0.78800360000000003
aF0.77145999999999992
aF0.78986933333333331
aF0.72780000000000011
aF0.70499100000000003
asS'glpk'
p6
(lp7
F0.018853770700000008
aF0.048051739999999989
aF0.074090242000000014
aF0.12641265600000001
aF0.15119959666666669
aF0.173600845
aF0.188211025
aF0.16005700999999997
aF0.17567094999999999
aF0.18033161999999997
aF0.1388124
aF0.16554978000000001
aF0.12608426666666667
aF0.16539000000000001
aF0.18427766666666667
aF0.21078133333333335
asS'soplex'
p8
(lp9
F0.0078201940999999969
aF0.020945888900000001
aF0.032203683800000001
aF0.059516587999999988
aF0.089254333333333311
aF0.096771195000000004
aF0.13504939499999999
aF0.16529852500000003
aF0.23319110000000004
aF0.26751029999999998
aF0.3170094
aF0.31728279999999998
aF0.22608300000000001
aF0.21873166666666669
aF0.24571166666666669
aF0.23401000000000002
as.