(dp1
S'gurobi'
p2
(lp3
F6.7136155000000006e-05
aF0.00011365903799999997
aF0.00017662560000000001
aF0.00030882932000000012
aF0.00055456983333333342
aF0.00080955690000000021
aF0.0014734184999999999
aF0.0026618585000000002
aF0.0059221870000000006
aF0.011796360000000001
aF0.0199451
aF0.0333981
aF0.066430000000000003
aF0.10591533333333332
aF0.23605299999999999
aF0.46304566666666669
asS'baseline'
p4
(lp5
F7.7470998999999957e-07
aF2.7271065900000009e-06
aF5.5794555999999996e-06
aF1.5508967e-05
aF4.4289903333333329e-05
aF6.6503375000000003e-05
aF0.00018422008499999995
aF0.00034683739999999999
aF0.0012232513000000002
aF0.0028709833999999998
aF0.0041425780000000001
aF0.0081259899999999996
aF0.011984710000000001
aF0.026017666666666672
aF0.072545333333333337
aF0.16614300000000001
asS'glpk'
p6
(lp7
F2.3454886999999992e-05
aF5.077803899999998e-05
aF8.200739600000002e-05
aF0.00016032596799999999
aF0.00038335313333333337
aF0.00055034539999999996
aF0.00122876785
aF0.0027708669999999998
aF0.0085610499999999989
aF0.01630595
aF0.026975499999999996
aF0.038592500000000002
aF0.070402333333333331
aF0.12292566666666667
aF0.28803366666666669
aF0.51307200000000008
asS'soplex'
p8
(lp9
F6.5078261999999986e-05
aF0.00014577311
aF0.00022879512599999999
aF0.00039817069999999996
aF0.00074516870000000018
aF0.0010865745
aF0.001798294
aF0.0027407294999999996
aF0.0065164360000000005
aF0.011294200000000001
aF0.01316695
aF0.020020799999999998
aF0.038721666666666668
aF0.097363333333333343
aF0.21575766666666665
aF0.47142533333333336
as.