(dp1
S'avx'
p2
(lp3
F0.24917499999999998
aF0.2494548
aF0.24959139999999999
aF0.24979679999999999
aF0.24989940000000002
asS'baseline'
p4
(lp5
F0.24916900000000003
aF0.2494548
aF0.24959039999999999
aF0.24979619999999997
aF0.24989940000000002
asS'block2_swap_avx'
p6
(lp7
F0.24696760000000001
aF0.24797180000000002
aF0.24847639999999999
aF0.24923719999999999
aF0.24961899999999998
asS'block2'
p8
(lp9
F0.24917499999999998
aF0.2494548
aF0.24959139999999999
aF0.24979679999999999
aF0.24989940000000002
asS'block2_swap'
p10
(lp11
F0.24720599999999998
aF0.24813499999999999
aF0.24859919999999999
aF0.24929879999999999
aF0.24965000000000001
asS'block4_swap_avx'
p12
(lp13
F0.24696760000000001
aF0.24797220000000003
aF0.24847639999999999
aF0.24923719999999999
aF0.24961899999999998
asS'block2_sse'
p14
(lp15
F0.24893299999999999
aF0.24928979999999998
aF0.24946779999999999
aF0.24973499999999998
aF0.24986839999999999
asS'block8_swap_avx'
p16
(lp17
F0.24697059999999998
aF0.24797379999999997
aF0.24847639999999999
aF0.24923719999999999
aF0.24961899999999998
asS'sse'
p18
(lp19
F0.24917499999999998
aF0.2494548
aF0.24959139999999999
aF0.24979679999999999
aF0.24989940000000002
asS'gurobi'
p20
(lp21
F0.24916900000000003
aF0.2494548
aF0.24959039999999999
aF0.24979619999999997
aF0.24989940000000002
asS'nta'
p22
(lp23
F0.24917499999999998
aF0.2494548
aF0.24959139999999999
aF0.24979679999999999
aF0.24989940000000002
asS'array'
p24
(lp25
F0.24917499999999998
aF0.2494548
aF0.24959139999999999
aF0.24979679999999999
aF0.24989940000000002
asS'ssa'
p26
(lp27
F0.24917499999999998
aF0.2494548
aF0.24959139999999999
aF0.24979679999999999
aF0.24989940000000002
asS'glpk'
p28
(lp29
F0.24916900000000003
aF0.2494548
aF0.24959039999999999
aF0.24979619999999997
aF0.24989940000000002
asS'soplex'
p30
(lp31
F0.24916900000000003
aF0.2494548
aF0.24959039999999999
aF0.24979619999999997
aF0.24989940000000002
as.