(dp1
S'avx'
p2
(lp3
F16542038
aF40702800
aF65279880
aF323105600
aF2176530000
asS'baseline'
p4
(lp5
F15898412
aF45596760
aF73487480
aF343110600
aF2276558000
asS'block2_swap_avx'
p6
(lp7
F14716258
aF41870160
aF66427620
aF308990600
aF2033664000
asS'block2'
p8
(lp9
F15027920
aF41303660
aF68905120
aF315047400
aF2018148000
asS'block2_swap'
p10
(lp11
F15421666
aF40769440
aF66182420
aF312737400
aF2032418000
asS'block4_swap_avx'
p12
(lp13
F16452878
aF40494640
aF64529880
aF306150400
aF2064430000
asS'block2_sse'
p14
(lp15
F19543066
aF51512280
aF78019480
aF374423000
aF2416288000
asS'block8_swap_avx'
p16
(lp17
F16443462
aF41524100
aF69538220
aF318956800
aF2188448000
asS'sse'
p18
(lp19
F19052182
aF47504580
aF73649420
aF354372800
aF2351660000
asS'gurobi'
p20
(lp21
F59783440
aF146329400
aF292743600
aF1239938000
aF6917094000
asS'nta'
p22
(lp23
F17688006
aF45000460
aF72597880
aF346393400
aF2276758000
asS'array'
p24
(lp25
F16095332
aF46254880
aF71438820
aF350977600
aF2261638000
asS'ssa'
p26
(lp27
F16530376
aF42251660
aF67566700
aF329236000
aF2186644000
asS'glpk'
p28
(lp29
F78993400
aF174461800
aF325546200
aF1439392000
aF7258694000
asS'soplex'
p30
(lp31
F39179180
aF118624680
aF206685000
aF1219976000
aF16268058000
as.