(dp1
S'avx'
p2
(lp3
F0.68162040000000002
aF0.72317100000000001
aF0.72924519999999993
aF0.72831259999999998
aF0.72245459999999995
asS'baseline'
p4
(lp5
F0.67713400000000001
aF0.64362560000000002
aF0.64210699999999998
aF0.68153339999999996
aF0.68849059999999995
asS'block2_swap_avx'
p6
(lp7
F0.75083820000000001
aF0.70972239999999998
aF0.71462859999999995
aF0.76165760000000005
aF0.77139800000000003
asS'block2'
p8
(lp9
F0.73184939999999998
aF0.71081099999999997
aF0.69566600000000001
aF0.74825940000000002
aF0.77807979999999999
asS'block2_swap'
p10
(lp11
F0.71182800000000002
aF0.7182096
aF0.72010439999999998
aF0.75910319999999998
aF0.77300379999999991
asS'block4_swap_avx'
p12
(lp13
F0.700071
aF0.72514619999999996
aF0.73537660000000005
aF0.76942159999999993
aF0.75902939999999997
asS'block2_sse'
p14
(lp15
F0.56093799999999994
aF0.57609639999999995
aF0.60915619999999993
aF0.62868659999999998
aF0.65050459999999999
asS'block8_swap_avx'
p16
(lp17
F0.66378420000000005
aF0.70532680000000003
aF0.68278260000000002
aF0.73840699999999992
aF0.72174200000000011
asS'sse'
p18
(lp19
F0.58265899999999993
aF0.61273040000000001
aF0.64659219999999995
aF0.66457540000000004
aF0.66810460000000005
asS'gurobi'
p20
(lp21
F0.18421500000000002
aF0.19912899999999997
aF0.16661734
aF0.18770439999999999
aF0.22685859999999999
asS'nta'
p22
(lp23
F0.62085620000000008
aF0.65255799999999997
aF0.65810040000000003
aF0.67948059999999999
aF0.6890018
asS'array'
p24
(lp25
F0.69156639999999991
aF0.63741020000000004
aF0.66693580000000008
aF0.67502419999999996
aF0.69570899999999991
asS'ssa'
p26
(lp27
F0.67736200000000002
aF0.69634059999999987
aF0.70220160000000009
aF0.71594899999999995
aF0.71771339999999995
asS'glpk'
p28
(lp29
F0.13734407999999998
aF0.16651489999999999
aF0.144397
aF0.16116000000000003
aF0.21224799999999999
asS'soplex'
p30
(lp31
F0.26616100000000004
aF0.2408998
aF0.23976459999999999
aF0.19478999999999999
aF0.14765002000000002
as.