(dp1
S'avx'
p2
(lp3
F0.0059219999999999993
aF0.014570400000000001
aF0.023368199999999999
aF0.11565780000000001
aF0.7790954000000001
asS'baseline'
p4
(lp5
F0.0056917999999999995
aF0.016322799999999998
aF0.026306200000000002
aF0.1228186
aF0.81490039999999997
asS'block2_swap_avx'
p6
(lp7
F0.0052687999999999997
aF0.014988999999999999
aF0.0237792
aF0.11060540000000001
aF0.72795600000000005
asS'block2'
p8
(lp9
F0.0053804000000000005
aF0.014785800000000002
aF0.024665800000000002
aF0.1127734
aF0.7224024
asS'block2_swap'
p10
(lp11
F0.0055215999999999998
aF0.014594599999999999
aF0.023691400000000001
aF0.1119464
aF0.72751180000000004
asS'block4_swap_avx'
p12
(lp13
F0.0058903999999999996
aF0.014496600000000002
aF0.023099799999999997
aF0.10958859999999999
aF0.7389699999999999
asS'block2_sse'
p14
(lp15
F0.0069966000000000004
aF0.018440400000000003
aF0.027928599999999998
aF0.1340268
aF0.86491799999999996
asS'block8_swap_avx'
p16
(lp17
F0.0058872000000000004
aF0.014865599999999998
aF0.024892599999999997
aF0.1141726
aF0.78336219999999979
asS'sse'
p18
(lp19
F0.0068211999999999995
aF0.017005399999999997
aF0.026363999999999999
aF0.12684979999999998
aF0.84178439999999988
asS'gurobi'
p20
(lp21
F0.021399999999999999
aF0.052379200000000001
aF0.10478879999999999
aF0.44383859999999997
aF2.4759919999999997
asS'nta'
p22
(lp23
F0.0063322000000000005
aF0.016109000000000002
aF0.0259876
aF0.1239934
aF0.81497200000000003
asS'array'
p24
(lp25
F0.0057625999999999997
aF0.016558200000000002
aF0.025573200000000001
aF0.12563459999999999
aF0.80956240000000013
asS'ssa'
p26
(lp27
F0.0059182000000000002
aF0.015125599999999999
aF0.024186800000000001
aF0.117852
aF0.78271640000000009
asS'glpk'
p28
(lp29
F0.028276800000000001
aF0.062450000000000006
aF0.11653139999999999
aF0.51523439999999998
aF2.5982700000000003
asS'soplex'
p30
(lp31
F0.014024799999999999
aF0.042462599999999996
aF0.073984000000000008
aF0.43669460000000004
aF5.823182000000001
as.