(dp1
S'avx'
p2
(lp3
F4166.6479999999992
aF10171.745999999999
aF23545.460000000003
aF78912.139999999985
aF149615.60000000001
aF314489.33333333331
aF566315.66666666663
aF1748480
aF3766560
aF15351233.333333334
aF11578390
aF16716150
aF45420900
aF57576800
asS'baseline'
p4
(lp5
F3864.3479999999995
aF10240.501999999999
aF32517.920000000002
aF79133.059999999998
aF155783.79999999999
aF346294
aF631671.66666666663
aF1986880
aF3943803.3333333335
aF17516200
aF11822395
aF18757700
aF49142900
aF62973800
asS'block2_swap_avx'
p6
(lp7
F3944.3620000000001
aF9916.6100000000006
aF21957.959999999999
aF68258.819999999992
aF135154.60000000001
aF280161.66666666669
aF568309.66666666663
aF1530340
aF3290040
aF14343866.666666666
aF10706435
aF15592100
aF43660300
aF58792200
asS'block2'
p8
(lp9
F3840.7959999999998
aF9658.1599999999999
aF22615.620000000003
aF67244.759999999995
aF129704.8
aF272287.33333333331
aF535063
aF1622373.3333333333
aF3405040
aF14611766.666666666
aF11224985
aF17128600
aF45301500
aF57017800
asS'block2_swap'
p10
(lp11
F4097.6600000000008
aF9808.2920000000013
aF22279.799999999999
aF65587.860000000015
aF127612.86000000002
aF265428.33333333331
aF506407.66666666669
aF1604780
aF3372450
aF14387966.666666666
aF11146490
aF15921500
aF45330300
aF58661300
asS'block4_swap_avx'
p12
(lp13
F5069.9339999999993
aF9153.0280000000002
aF21167.120000000003
aF63029.299999999988
aF113621.88
aF241525.33333333334
aF439035
aF1374980
aF2995426.6666666665
aF12860866.666666666
aF10752035
aF15211850
aF43407100
aF59513900
asS'block2_sse'
p14
(lp15
F5194.536000000001
aF15041
aF35271.080000000002
aF112888.66
aF223864
aF461428.33333333331
aF845473
aF2548520
aF5275010
aF22135866.666666668
aF14909050
aF20495950
aF54739600
aF73107100
asS'block8_swap_avx'
p16
(lp17
F4272.8019999999997
aF10025.716
aF22424.759999999998
aF67342.919999999998
aF108477.18000000001
aF232573
aF424488
aF1323053.3333333333
aF3569436.6666666665
aF12645933.333333334
aF13376665
aF15043950
aF43635000
aF66510000
asS'sse'
p18
(lp19
F4897.25
aF13775.139999999999
aF32241.52
aF104267.86
aF204287.60000000001
aF422460.66666666669
aF735999.33333333337
aF2262780
aF4750930
aF18806100
aF13351600
aF19070450
aF49579800
aF65548100
asS'gurobi'
p20
(lp21
F210503.39999999999
aF290103.79999999999
aF495413.20000000001
aF883044.59999999998
aF1471532
aF2390926.6666666665
aF3804646.6666666665
aF7330163.333333333
aF20454133.333333332
aF29783566.666666668
aF63973350
aF82841200
aF166574000
aF324040000
asS'nta'
p22
(lp23
F5808.79
aF15593.559999999998
aF37787.020000000004
aF102948.51999999999
aF195220.79999999999
aF400438.66666666669
aF702336
aF2107823.3333333335
aF5021906.666666667
aF17035266.666666668
aF13459350
aF18640900
aF47638600
aF72836600
asS'array'
p24
(lp25
F6195.4519999999993
aF15747.980000000001
aF38023.459999999999
aF107254.46000000001
aF204184
aF449828.33333333331
aF782005.66666666663
aF2289586.6666666665
aF4699530
aF18399633.333333332
aF13234100
aF20362400
aF49826700
aF64062500
asS'ssa'
p26
(lp27
F4071.4660000000003
aF10437.329999999998
aF25023.620000000003
aF74769.319999999992
aF149101.60000000001
aF315727.66666666669
aF600049
aF1796770
aF3707513.3333333335
aF15131033.333333334
aF11937250
aF17051100
aF45257200
aF65764800
asS'glpk'
p28
(lp29
F74539.419999999998
aF129716.8
aF229794.60000000001
aF486854.40000000002
aF861725.80000000005
aF1429656.6666666667
aF2912986.6666666665
aF7497750
aF23100200
aF48428266.666666664
aF72008000
aF100199100
aF173892000
aF320746000
asS'soplex'
p30
(lp31
F286107.20000000001
aF221792.60000000001
aF607442.80000000005
aF1158179.6000000001
aF1501154
aF2812213.3333333335
aF4161100
aF7703113.333333333
aF13683150
aF35847333.333333336
aF42494200
aF55586700
aF193542000
aF184332000
as.