(dp1
S'avx'
p2
(lp3
F1.5935367999999999e-06
aF3.742526e-06
aF8.5303679999999996e-06
aF2.8362420000000003e-05
aF5.3668480000000002e-05
aF0.00011271316666666666
aF0.00020291099999999998
aF0.00062603099999999998
aF0.0013485633333333335
aF0.0054957066666666667
aF0.0041451550000000002
aF0.0059842599999999999
aF0.016259599999999999
aF0.020610799999999999
asS'baseline'
p4
(lp5
F1.4851262000000002e-06
aF3.7683300000000004e-06
aF1.1743246000000002e-05
aF2.8435400000000002e-05
aF5.5887379999999995e-05
aF0.00012411900000000001
aF0.0002262906666666667
aF0.00071144899999999996
aF0.00141205
aF0.0062708766666666671
aF0.0042324850000000002
aF0.0067150449999999993
aF0.017591900000000001
aF0.022542599999999999
asS'block2_swap_avx'
p6
(lp7
F1.5137338e-06
aF3.6506579999999997e-06
aF7.9611019999999995e-06
aF2.4545719999999999e-05
aF4.8497400000000001e-05
aF0.00010043663333333334
aF0.00020368433333333333
aF0.00054795699999999996
aF0.0011779500000000001
aF0.0051350133333333331
aF0.0038331949999999997
aF0.0055817749999999998
aF0.015629400000000002
aF0.0210458
asS'block2'
p8
(lp9
F1.4773237999999998e-06
aF3.5591879999999998e-06
aF8.1970919999999996e-06
aF2.4181380000000001e-05
aF4.6547e-05
aF9.7595466666666657e-05
aF0.00019173733333333333
aF0.00058095633333333325
aF0.0012191766666666667
aF0.0052309366666666674
aF0.0040186000000000006
aF0.0061319249999999999
aF0.016216899999999999
aF0.020410600000000001
asS'block2_swap'
p10
(lp11
F1.5693163999999999e-06
aF3.6120739999999998e-06
aF8.078738e-06
aF2.3587959999999999e-05
aF4.5803040000000005e-05
aF9.5136200000000006e-05
aF0.00018147200000000001
aF0.00057463633333333338
aF0.0012074766666666668
aF0.00515074
aF0.0039904150000000006
aF0.0056998150000000004
aF0.016227399999999999
aF0.0209991
asS'block4_swap_avx'
p12
(lp13
F1.9177482000000002e-06
aF3.3777700000000001e-06
aF7.6802160000000002e-06
aF2.2672119999999997e-05
aF4.078486e-05
aF8.6624166666666677e-05
aF0.00015735533333333332
aF0.00049237533333333324
aF0.0010725633333333335
aF0.004604326666666666
aF0.0038494549999999999
aF0.005445755
aF0.0155391
aF0.021304300000000002
asS'block2_sse'
p14
(lp15
F1.9612980000000001e-06
aF5.4841279999999996e-06
aF1.2728982e-05
aF4.0521040000000003e-05
aF8.0282119999999996e-05
aF0.00016530433333333331
aF0.00030286666666666664
aF0.00091244600000000003
aF0.0018885900000000001
aF0.0079243333333333336
aF0.0053372949999999997
aF0.0073371400000000007
aF0.019595399999999999
aF0.026170100000000002
asS'block8_swap_avx'
p16
(lp17
F1.6315773999999999e-06
aF3.6908739999999998e-06
aF8.1282240000000002e-06
aF2.4214799999999997e-05
aF3.8944060000000003e-05
aF8.3386366666666665e-05
aF0.00015216120000000001
aF0.00047377199999999996
aF0.0012781466666666665
aF0.0045273133333333338
aF0.00478883
aF0.0053859299999999997
aF0.0156203
aF0.0238084
asS'sse'
p18
(lp19
F1.8562860000000002e-06
aF5.0323339999999998e-06
aF1.1642599999999999e-05
aF3.742962e-05
aF7.3249859999999995e-05
aF0.00015136266666666666
aF0.00026366633333333334
aF0.00081015633333333329
aF0.0017009266666666667
aF0.0067322499999999995
aF0.0047798650000000003
aF0.0068270600000000002
aF0.017748199999999999
aF0.023464200000000001
asS'gurobi'
p20
(lp21
F7.5498420000000003e-05
aF0.00010398989999999999
aF0.00017751019999999999
aF0.00031627420000000003
aF0.00052701440000000005
aF0.00085615133333333336
aF0.0013622199999999999
aF0.0026243533333333339
aF0.0073220766666666666
aF0.010661666666666667
aF0.0229
aF0.029653800000000001
aF0.059626199999999997
aF0.115992
asS'nta'
p22
(lp23
F2.1812599999999999e-06
aF5.6828320000000001e-06
aF1.3631525999999999e-05
aF3.6957439999999996e-05
aF7.0007639999999986e-05
aF0.00014347829999999999
aF0.00025160299999999998
aF0.00075467200000000007
aF0.0017980833333333332
aF0.0060983766666666663
aF0.0048184000000000005
aF0.0066733299999999999
aF0.0170534
aF0.026073099999999998
asS'array'
p24
(lp25
F2.3188760000000001e-06
aF5.7379779999999998e-06
aF1.3712438e-05
aF3.8506659999999999e-05
aF7.3208259999999999e-05
aF0.00016121266666666666
aF0.00028018266666666666
aF0.00081978633333333335
aF0.0016825933333333334
aF0.006586883333333334
aF0.0047377000000000001
aF0.0072896699999999998
aF0.017836399999999999
aF0.022932500000000001
asS'ssa'
p26
(lp27
F1.5582895999999999e-06
aF3.8373160000000001e-06
aF9.0593539999999992e-06
aF2.6873679999999995e-05
aF5.3488939999999991e-05
aF0.00011317510000000001
aF0.00021501933333333334
aF0.00064334566666666667
aF0.0013274133333333333
aF0.0054167433333333339
aF0.0042735250000000002
aF0.0061043299999999998
aF0.016200900000000001
aF0.023541800000000002
asS'glpk'
p28
(lp29
F2.6802720000000001e-05
aF4.6568099999999999e-05
aF8.2422059999999995e-05
aF0.00017445680000000003
aF0.00030866920000000004
aF0.00051197199999999997
aF0.0010431846666666667
aF0.0026844033333333333
aF0.008269393333333333
aF0.017335900000000001
aF0.025776800000000002
aF0.035867449999999995
aF0.062246299999999997
aF0.114813
asS'soplex'
p30
(lp31
F0.00010262220000000001
aF7.9587940000000007e-05
aF0.00021765880000000002
aF0.00041480420000000002
aF0.00053760700000000006
aF0.0010069403333333334
aF0.0014899900000000001
aF0.0027579066666666668
aF0.0048985566666666673
aF0.012832433333333332
aF0.0152117
aF0.01989815
aF0.069279999999999994
aF0.065982799999999994
as.