(dp1
S'avx'
p2
(lp3
F3699.4120000000003
aF9782.2720000000008
aF24300.759999999998
aF80860.959999999992
aF149834.39999999999
aF315503.33333333331
aF569549.66666666663
aF1799700
aF3693356.6666666665
aF16052866.666666666
aF11570815
aF18133400
aF42460500
aF56635800
asS'baseline'
p4
(lp5
F3850.0639999999999
aF10292.494000000001
aF32610.919999999995
aF79383.5
aF153674
aF344798
aF628191.66666666663
aF1975370
aF3890520
aF17785266.666666668
aF11617505
aF18274650
aF46786000
aF60596200
asS'block2_swap_avx'
p6
(lp7
F3906.0880000000006
aF9512.848
aF22095.18
aF67913.579999999987
aF129018.2
aF270363.33333333331
aF485255
aF1539583.3333333333
aF3043643.3333333335
aF15905633.333333334
aF11902395
aF18094650
aF46661000
aF53233200
asS'block2'
p8
(lp9
F3808.4080000000004
aF9704.5840000000007
aF22898.019999999997
aF71394.740000000005
aF128239
aF270278
aF489006.66666666669
aF1566603.3333333333
aF3323560
aF14778133.333333334
aF11362045
aF17583650
aF44245700
aF54515700
asS'block2_swap'
p10
(lp11
F4078.9859999999999
aF9818.7880000000005
aF22375.5
aF65750.079999999987
aF124778.98000000001
aF259114.33333333334
aF493517.33333333331
aF1572570
aF3171803.3333333335
aF15212066.666666666
aF11348150
aF17047100
aF43616400
aF53632800
asS'block4_swap_avx'
p12
(lp13
F4275.098
aF8707.3480000000018
aF21299.560000000001
aF64349.340000000004
aF115006.51999999999
aF239194.66666666666
aF423476
aF1357233.3333333333
aF2849630
aF12224533.333333334
aF11745105
aF16196000
aF41514400
aF53530200
asS'block2_sse'
p14
(lp15
F5177.4220000000005
aF14719.299999999999
aF35555.32
aF113002.08
aF216141
aF457389.66666666669
aF823056.33333333337
aF2504043.3333333335
aF4932093.333333333
aF20567933.333333332
aF15374550
aF22622300
aF54540100
aF64904000
asS'block8_swap_avx'
p16
(lp17
F4035.558
aF9833.9520000000011
aF23109.540000000001
aF64707.459999999999
aF109205.66
aF235975.33333333334
aF413278.66666666669
aF1338096.6666666667
aF2758346.6666666665
aF11986933.333333334
aF14399650
aF16627800
aF42743600
aF55554900
asS'sse'
p18
(lp19
F4727.6440000000002
aF13377.579999999998
aF33087.639999999999
aF112324.10000000001
aF201373
aF419916.66666666669
aF736923.33333333337
aF2244386.6666666665
aF4473573.333333333
aF17969733.333333332
aF14693800
aF19674100
aF47860200
aF63626900
asS'gurobi'
p20
(lp21
F211599.79999999999
aF293117.79999999999
aF515746.79999999999
aF896950.59999999998
aF1435180
aF2359990
aF3849580
aF7173733.333333333
aF22650100
aF29271600
aF64833400
aF82311050
aF169459000
aF319829000
asS'nta'
p22
(lp23
F5855.4640000000009
aF15642.039999999999
aF37806.559999999998
aF104941.72
aF192265.60000000001
aF416567.66666666669
aF685027.66666666663
aF2274456.6666666665
aF4214903.333333333
aF18386566.666666668
aF14104600
aF19407700
aF46811400
aF60588100
asS'array'
p24
(lp25
F6181.1899999999996
aF15891.24
aF38436.32
aF109225.58
aF203825.39999999999
aF425551.33333333331
aF740833
aF2233890
aF4440820
aF19459366.666666668
aF13664400
aF20147150
aF48022900
aF61786100
asS'ssa'
p26
(lp27
F4075.7800000000002
aF10459.620000000001
aF25213.18
aF75486.839999999997
aF148298.20000000001
aF313531.33333333331
aF571399
aF1787316.6666666667
aF3621893.3333333335
aF15097066.666666666
aF12788880
aF17599550
aF43645500
aF56301300
asS'glpk'
p28
(lp29
F75665.300000000003
aF130763.60000000001
aF233308.79999999999
aF508448.40000000002
aF835245.40000000002
aF1532183.3333333333
aF2922190
aF7522773.333333333
aF23462466.666666668
aF48621100
aF73808400
aF101128900
aF171198000
aF303629000
asS'soplex'
p30
(lp31
F271788.20000000001
aF223274.79999999999
aF641413.80000000005
aF1156809
aF1473694
aF2763106.6666666665
aF4187253.3333333335
aF6973436.666666667
aF13063180
aF39851500
aF36185400
aF60479350
aF176451000
aF184786000
as.