(dp1
S'avx'
p2
(lp3
F0.7356376
aF0.95510300000000004
aF0.96821360000000012
aF0.95606340000000001
aF1.0287511999999999
aF1.0476966666666667
aF1.0100586666666667
aF0.98868100000000003
aF0.93283466666666659
aF0.81649100000000008
aF0.70397350000000003
aF0.68486999999999998
aF0.73838800000000004
aF0.712233
asS'baseline'
p4
(lp5
F0.49336839999999993
aF0.60052059999999996
aF0.68912239999999991
aF0.77762340000000008
aF0.84812880000000013
aF0.86532166666666666
aF0.8682740000000001
aF0.8704896666666665
aF0.86790299999999998
aF0.69930833333333331
aF0.68806250000000002
aF0.67106200000000005
aF0.65781100000000003
aF0.66106299999999996
asS'block2_swap_avx'
p6
(lp7
F0.69964280000000001
aF0.98313220000000001
aF1.0410236000000002
aF1.1276539999999999
aF1.197484
aF1.2260266666666666
aF1.1939333333333333
aF1.15493
aF1.1200233333333334
aF0.82771166666666662
aF0.69199199999999994
aF0.68542900000000007
aF0.67191800000000002
aF0.75775899999999996
asS'block2'
p8
(lp9
F0.71402219999999994
aF0.96368200000000004
aF1.0091069999999998
aF1.0935387999999999
aF1.2037039999999999
aF1.2203733333333333
aF1.1792366666666665
aF1.1346533333333333
aF1.0288170000000001
aF0.87578066666666665
aF0.71594150000000001
aF0.70558049999999994
aF0.70859700000000003
aF0.73993200000000003
asS'block2_swap'
p10
(lp11
F0.6690448
aF0.95218500000000006
aF1.0349600000000001
aF1.176976
aF1.2362220000000002
aF1.26996
aF1.16812
aF1.1308866666666668
aF1.0752066666666666
aF0.84892300000000009
aF0.7202655
aF0.72763949999999999
aF0.71882100000000004
aF0.752112
asS'block4_swap_avx'
p12
(lp13
F0.63875740000000003
aF1.073928
aF1.0825179999999999
aF1.1863839999999999
aF1.3424119999999999
aF1.37662
aF1.3619599999999998
aF1.3089399999999998
aF1.1975133333333332
aF1.0567103333333332
aF0.71298900000000009
aF0.76667099999999999
aF0.755216
aF0.75355399999999995
asS'block2_sse'
p14
(lp15
F0.52782440000000008
aF0.63513359999999996
aF0.65161899999999995
aF0.68425279999999999
aF0.7141594
aF0.72265366666666664
aF0.69627233333333338
aF0.70998433333333333
aF0.69134733333333331
aF0.62658466666666668
aF0.53267700000000007
aF0.548373
aF0.574851
aF0.62150099999999997
asS'block8_swap_avx'
p16
(lp17
F0.67903839999999993
aF0.94848520000000003
aF1.0043760000000002
aF1.188796
aF1.4162199999999998
aF1.4017133333333334
aF1.39259
aF1.3295833333333333
aF1.2394400000000001
aF1.0845479999999998
aF0.57381299999999991
aF0.74770300000000001
aF0.73350000000000004
aF0.72609000000000001
asS'sse'
p18
(lp19
F0.57746359999999997
aF0.69863259999999994
aF0.70822600000000002
aF0.69097300000000006
aF0.76846199999999998
aF0.78657966666666679
aF0.77849533333333343
aF0.79289666666666669
aF0.76307733333333339
aF0.71820233333333328
aF0.54930999999999996
aF0.63097449999999999
aF0.65508200000000005
aF0.63397499999999996
asS'gurobi'
p20
(lp21
F0.0089529799999999993
aF0.02134322
aF0.047884920000000004
aF0.069025659999999989
aF0.092144299999999998
aF0.13474103333333334
aF0.13902896666666667
aF0.26132533333333335
aF0.165322
aF0.42512299999999997
aF0.14643800000000001
aF0.14928649999999999
aF0.181615
aF0.125248
asS'nta'
p22
(lp23
F0.46952660000000002
aF0.59742360000000005
aF0.61470900000000006
aF0.73085080000000002
aF0.80338639999999995
aF0.80162300000000009
aF0.84141233333333332
aF0.78830499999999992
aF0.80897033333333335
aF0.70215300000000003
aF0.58149849999999992
aF0.640154
aF0.66975899999999999
aF0.66577200000000003
asS'array'
p24
(lp25
F0.44294840000000002
aF0.58761459999999999
aF0.60378520000000002
aF0.71000780000000008
aF0.75650860000000009
aF0.77501633333333331
aF0.77271033333333339
aF0.79603599999999997
aF0.76761299999999988
aF0.66814966666666675
aF0.59181349999999999
aF0.61708499999999999
aF0.65286299999999997
aF0.65286299999999997
asS'ssa'
p26
(lp27
F0.66896959999999994
aF0.8934512
aF0.91987279999999993
aF1.0214014
aF1.0402899999999999
aF1.0533966666666668
aF1.01058
aF0.99445533333333336
aF0.9434433333333333
aF0.85372100000000006
aF0.6434025000000001
aF0.70495250000000009
aF0.71834200000000004
aF0.71646399999999999
asS'glpk'
p28
(lp29
F0.023832179999999998
aF0.04786294
aF0.092907500000000004
aF0.12299412000000001
aF0.1555388
aF0.19315666666666667
aF0.1775433333333333
aF0.23107200000000003
aF0.14498633333333333
aF0.25650699999999999
aF0.10837705
aF0.12124550000000001
aF0.17977099999999999
aF0.13192999999999999
asS'soplex'
p30
(lp31
F0.0085181780000000012
aF0.027834459999999998
aF0.038603020000000002
aF0.065241799999999989
aF0.095050700000000002
aF0.10623513333333334
aF0.13216216666666666
aF0.25031300000000001
aF0.26836166666666667
aF0.31639999999999996
aF0.22126299999999999
aF0.25353000000000003
aF0.17441899999999999
aF0.21678
as.