(dp1
S'avx'
p2
(lp3
F1.4266526e-06
aF3.6038799999999998e-06
aF8.8046819999999997e-06
aF2.9061800000000004e-05
aF5.3752740000000001e-05
aF0.00011305843333333333
aF0.00020406233333333335
aF0.00064445833333333336
aF0.0013224166666666668
aF0.0057469999999999995
aF0.0041426850000000001
aF0.0064918750000000002
aF0.015199499999999999
aF0.0202735
asS'baseline'
p4
(lp5
F1.4750720000000001e-06
aF3.7875739999999997e-06
aF1.1781545999999998e-05
aF2.8534180000000001e-05
aF5.5122640000000009e-05
aF0.00012356779999999999
aF0.00022503099999999999
aF0.00070726066666666667
aF0.0013930800000000003
aF0.0063673333333333334
aF0.0041589999999999995
aF0.0065421250000000002
aF0.016747999999999999
aF0.021690999999999998
asS'block2_swap_avx'
p6
(lp7
F1.498632e-06
aF3.5059559999999996e-06
aF8.0128420000000005e-06
aF2.4425880000000001e-05
aF4.6287099999999999e-05
aF9.6925166666666672e-05
aF0.000173871
aF0.00055126566666666664
aF0.0010898433333333332
aF0.0056941666666666668
aF0.0042610600000000005
aF0.0064776249999999999
aF0.016702999999999999
aF0.019056
asS'block2'
p8
(lp9
F1.4647889999999998e-06
aF3.5754140000000001e-06
aF8.3007500000000001e-06
aF2.5677920000000002e-05
aF4.6013259999999999e-05
aF9.687496666666667e-05
aF0.00017517966666666667
aF0.0005608956666666667
aF0.0011900400000000001
aF0.0052904166666666664
aF0.0040677500000000002
aF0.0062950000000000002
aF0.015838999999999999
aF0.019514500000000001
asS'block2_swap'
p10
(lp11
F1.5611276000000001e-06
aF3.6173340000000006e-06
aF8.1170660000000009e-06
aF2.3651479999999997e-05
aF4.4770720000000003e-05
aF9.2872499999999996e-05
aF0.00017680199999999999
aF0.00056304166666666666
aF0.0011355299999999998
aF0.005446083333333334
aF0.00406281
aF0.0061025000000000003
aF0.015613
aF0.0191985
asS'block4_swap_avx'
p12
(lp13
F1.6314085999999998e-06
aF3.2194580000000004e-06
aF7.7315199999999984e-06
aF2.316554e-05
aF4.1282419999999998e-05
aF8.5770266666666668e-05
aF0.00015178233333333334
aF0.00048604666666666666
aF0.0010203549999999999
aF0.0043765399999999999
aF0.0042049349999999999
aF0.0057980000000000002
aF0.014860999999999999
aF0.019161999999999998
asS'block2_sse'
p14
(lp15
F1.9564639999999997e-06
aF5.3710939999999995e-06
aF1.2831784000000001e-05
aF4.0560720000000001e-05
aF7.7475779999999986e-05
aF0.00016386999999999999
aF0.00029484366666666668
aF0.00089652066666666668
aF0.0017657933333333333
aF0.0073630000000000006
aF0.0055040599999999999
aF0.00809875
aF0.019524
aF0.0232325
asS'block8_swap_avx'
p16
(lp17
F1.5463820000000001e-06
aF3.6223640000000001e-06
aF8.3813679999999999e-06
aF2.3296580000000002e-05
aF3.92041e-05
aF8.4603466666666671e-05
aF0.00014808456666666668
aF0.00047915633333333333
aF0.0009876883333333334
aF0.0042915399999999999
aF0.0051553750000000002
aF0.0059531250000000001
aF0.015301500000000001
aF0.019886999999999998
asS'sse'
p18
(lp19
F1.7931649999999999e-06
aF4.8920919999999999e-06
aF1.1951898000000001e-05
aF4.0352719999999999e-05
aF7.2192580000000003e-05
aF0.00015043999999999998
aF0.00026402099999999997
aF0.00080362466666666682
aF0.0016017899999999999
aF0.0064330000000000003
aF0.0052605600000000001
aF0.0070429999999999998
aF0.017132499999999998
aF0.022776500000000002
asS'gurobi'
p20
(lp21
F7.5865239999999996e-05
aF0.00010505858
aF0.00018482040000000001
aF0.00032121260000000007
aF0.00051400019999999999
aF0.00084494799999999988
aF0.0013783133333333333
aF0.0025682899999999995
aF0.0081083166666666671
aF0.010478466666666667
aF0.02320825
aF0.02946375
aF0.060659999999999999
aF0.114485
asS'nta'
p22
(lp23
F2.1988280000000004e-06
aF5.7039559999999996e-06
aF1.3639884000000001e-05
aF3.7695499999999998e-05
aF6.8951160000000009e-05
aF0.00014935806666666667
aF0.00024542966666666667
aF0.00081439566666666673
aF0.0015090399999999999
aF0.0065820000000000002
aF0.0050493149999999995
aF0.0069479999999999993
aF0.016757000000000001
aF0.021688499999999999
asS'array'
p24
(lp25
F2.3162360000000001e-06
aF5.793015999999999e-06
aF1.3859043999999999e-05
aF3.9243180000000003e-05
aF7.3075399999999988e-05
aF0.00015246233333333331
aF0.00026531499999999996
aF0.00079988533333333334
aF0.0015898966666666667
aF0.0069664999999999996
aF0.0048917500000000003
aF0.0072125000000000002
aF0.017191499999999998
aF0.022117000000000001
asS'ssa'
p26
(lp27
F1.5596924000000002e-06
aF3.845582e-06
aF9.1382399999999994e-06
aF2.7130760000000002e-05
aF5.32004e-05
aF0.00011234143333333333
aF0.00020473433333333333
aF0.00063996899999999989
aF0.0012967899999999999
aF0.0054046666666666661
aF0.0045785649999999997
aF0.0063006250000000007
aF0.015624499999999999
aF0.020153500000000001
asS'glpk'
p28
(lp29
F2.7204319999999998e-05
aF4.6934780000000002e-05
aF8.3691420000000011e-05
aF0.00018217899999999998
aF0.00029920939999999996
aF0.00054874466666666663
aF0.0010464573333333334
aF0.0026932066666666664
aF0.0083990833333333331
aF0.017405166666666669
aF0.026421
aF0.036199750000000003
aF0.061281000000000002
aF0.108686
asS'soplex'
p30
(lp31
F9.7480140000000005e-05
aF8.0137120000000017e-05
aF0.00022985860000000001
aF0.00041427499999999997
aF0.00052776240000000001
aF0.00098936500000000008
aF0.0014993100000000002
aF0.0024965199999999999
aF0.0046766233333333336
aF0.0142655
aF0.0129535
aF0.021649500000000002
aF0.063161999999999996
aF0.066145999999999996
as.