(dp1
S'avx'
p2
(lp3
F0.2136277900000001
aF0.23152278999999992
aF0.23625647999999988
aF0.24213013999999991
aF0.24497583333333336
aF0.24593690000000001
aF0.24721694999999996
aF0.24792635000000005
aF0.24863059999999998
aF0.24898500000000001
aF0.24918360000000001
aF0.24931719999999999
aF0.24947033333333332
aF0.24959466666666666
aF0.24973066666666668
aF0.24979833333333334
asS'baseline'
p4
(lp5
F0.21155300000000007
aF0.22985267999999992
aF0.23614552
aF0.24164559999999993
aF0.24473233333333333
aF0.24581049999999999
aF0.24716840000000001
aF0.24790415000000002
aF0.24862600000000001
aF0.24897260000000002
aF0.24917799999999998
aF0.24931500000000001
aF0.24946733333333335
aF0.24959366666666669
aF0.24973033333333336
aF0.24979766666666667
asS'block2x4_swap'
p6
(lp7
F0.16062433999999992
aF0.19585542000000003
aF0.21021075999999997
aF0.22485091999999995
aF0.23359336666666666
aF0.23666690000000004
aF0.24088555
aF0.24311629999999998
aF0.24538199999999999
aF0.24653270000000008
aF0.24721460000000001
aF0.24767219999999995
aF0.24823266666666668
aF0.24860199999999999
aF0.24906733333333334
aF0.24929999999999999
asS'block2x4'
p8
(lp9
F0.21670974000000001
aF0.23241432999999995
aF0.23672897999999998
aF0.24229704000000005
aF0.24504423333333331
aF0.24598169999999989
aF0.24723759999999997
aF0.24793804999999999
aF0.24863559999999998
aF0.24898799999999999
aF0.24918560000000003
aF0.24931880000000001
aF0.24947133333333335
aF0.24959466666666666
aF0.24973066666666668
aF0.24979833333333334
asS'sse'
p10
(lp11
F0.2136277900000001
aF0.23152278999999992
aF0.23625647999999988
aF0.24213013999999991
aF0.24497583333333336
aF0.24593690000000001
aF0.24721694999999996
aF0.24792635000000005
aF0.24863059999999998
aF0.24898500000000001
aF0.24918360000000001
aF0.24931719999999999
aF0.24947033333333332
aF0.24959466666666666
aF0.24973066666666668
aF0.24979833333333334
asS'nta'
p12
(lp13
F0.2136277900000001
aF0.23152278999999992
aF0.23625647999999988
aF0.24213013999999991
aF0.24497583333333336
aF0.24593690000000001
aF0.24721694999999996
aF0.24792635000000005
aF0.24863059999999998
aF0.24898500000000001
aF0.24918360000000001
aF0.24931719999999999
aF0.24947033333333332
aF0.24959466666666666
aF0.24973066666666668
aF0.24979833333333334
asS'array'
p14
(lp15
F0.2136277900000001
aF0.23152278999999992
aF0.23625647999999988
aF0.24213013999999991
aF0.24497583333333336
aF0.24593690000000001
aF0.24721694999999996
aF0.24792635000000005
aF0.24863059999999998
aF0.24898500000000001
aF0.24918360000000001
aF0.24931719999999999
aF0.24947033333333332
aF0.24959466666666666
aF0.24973066666666668
aF0.24979833333333334
asS'ssa'
p16
(lp17
F0.2136277900000001
aF0.23152278999999992
aF0.23625647999999988
aF0.24213013999999991
aF0.24497583333333336
aF0.24593690000000001
aF0.24721694999999996
aF0.24792635000000005
aF0.24863059999999998
aF0.24898500000000001
aF0.24918360000000001
aF0.24931719999999999
aF0.24947033333333332
aF0.24959466666666666
aF0.24973066666666668
aF0.24979833333333334
as.