(dp1
S'avx'
p2
(lp3
F2660.3908000000006
aF11563.590899999999
aF19068.800000000003
aF72920.134000000005
aF187855.80333333332
aF277886.5
aF716590.94999999995
aF1331033.5
aF4443620
aF10416668
aF14658540
aF28090340
aF34971900
aF78985100
aF210519333.33333334
aF442647333.33333331
asS'baseline'
p4
(lp5
F1879.1037700000013
aF7208.6582000000008
aF15053.975400000003
aF43113.501999999993
aF118086.59666666668
aF182963.52999999997
aF507317.04999999999
aF951482.25
aF3417138
aF7646977
aF13355156
aF24755860
aF32340886.666666668
aF73981866.666666672
aF229941000
aF428830333.33333331
asS'block2x4_swap'
p6
(lp7
F2165.8192300000005
aF7915.9247999999998
aF12385.814399999999
aF41568.637999999992
aF104452.61000000002
aF154860.28499999997
aF446988.20000000001
aF896750.65000000002
aF3373089
aF8217853
aF16034200
aF23326840
aF52176866.666666664
aF75686066.666666672
aF209372666.66666666
aF401575333.33333331
asS'block2x4'
p8
(lp9
F1977.9751899999994
aF7461.7729999999956
aF11986.166599999997
aF42152.173999999992
aF109331.96999999999
aF160920.51000000001
aF449014.5
aF919139.15000000002
aF3199085
aF8166346
aF12615710
aF22484680
aF33722166.666666664
aF77143133.333333328
aF218455333.33333334
aF406433000
asS'sse'
p10
(lp11
F3396.0310999999974
aF15561.959500000004
aF25990.640800000001
aF99161.425999999992
aF255983.63999999998
aF375766.09999999998
aF925569.40000000002
aF1666682.6499999999
aF5712846
aF12634166
aF17616440
aF30105500
aF48919133.333333336
aF90960100
aF226040666.66666666
aF528608333.33333331
asS'nta'
p12
(lp13
F2165.9108000000001
aF8632.2427999999964
aF14312.813199999999
aF49129.379999999997
aF133781.54666666669
aF194993.22
aF530833.25
aF1003318.85
aF3531128
aF8447209
aF16316088
aF25097680
aF33798926.666666664
aF74690433.333333328
aF197103666.66666666
aF416459666.66666669
asS'array'
p14
(lp15
F2173.3685999999993
aF8715.5913999999993
aF14336.494200000001
aF49981.18
aF132476.87333333332
aF195100.89999999999
aF531169
aF995990.55000000005
aF3559510
aF8793960
aF13444100
aF22357580
aF32907433.333333332
aF73364500
aF197627333.33333334
aF475807333.33333331
asS'ssa'
p16
(lp17
F2207.55737
aF8731.2127999999957
aF14327.401999999996
aF52557.457999999991
aF133436.17333333334
aF196695.28
aF530728.65000000002
aF1007262.25
aF3537961
aF8430566
aF17666700
aF23705900
aF33177603.333333332
aF76371533.333333328
aF196627333.33333334
aF411672666.66666669
as.