(dp1
S'avx'
p2
(lp3
F0.67089069999999973
aF0.90313222000000015
aF0.94583551999999993
aF0.99315197999999982
aF1.0448460000000002
aF1.0612369999999998
aF1.0169245500000001
aF0.97519465000000005
aF0.98896739999999994
aF0.836511
aF0.74483179999999993
aF0.68914079999999989
aF0.73280733333333326
aF0.73291566666666663
aF0.70089599999999985
aF0.71569666666666665
asS'baseline'
p4
(lp5
F0.65808562000000004
aF0.95587218000000007
aF1.1570919599999998
aF1.3426651999999997
aF1.4038600000000001
aF1.4509734999999999
aF1.3535675
aF1.3143915000000004
aF1.2676451
aF1.0940380000000001
aF0.8018320000000001
aF0.7442314000000001
aF0.7960883333333334
aF0.77569433333333337
aF0.67498733333333327
aF0.72757833333333333
asS'block2x4_swap'
p6
(lp7
F0.81791148999999985
aF1.3188253500000002
aF1.4502758000000002
aF1.7505248000000002
aF1.8800553333333334
aF1.9045485000000002
aF1.6317710000000001
aF1.4295050000000002
aF1.3027039999999999
aF1.0533895999999998
aF0.67851500000000009
aF0.8110636
aF0.62621366666666656
aF0.76375333333333328
aF0.71518899999999996
aF0.78352066666666664
asS'block2x4'
p8
(lp9
F0.98305286000000014
aF1.4638077000000005
aF1.5431212000000005
aF1.7562982
aF1.8152736666666667
aF1.8495510000000004
aF1.6299360000000001
aF1.4129150000000001
aF1.3614999999999999
aF1.0540262
aF0.86847059999999998
aF0.81218120000000005
aF0.77951866666666669
aF0.75631700000000013
aF0.69637399999999994
aF0.77006066666666673
asS'sse'
p10
(lp11
F0.52893613000000006
aF0.67117166999999978
aF0.69460077999999992
aF0.73176466000000007
aF0.76740613333333307
aF0.78256715000000021
aF0.78575305000000006
aF0.77213979999999993
aF0.76481510000000008
aF0.68595260000000002
aF0.6156143999999999
aF0.60593800000000009
aF0.49166300000000002
aF0.63386433333333336
aF0.65246066666666669
aF0.57484733333333338
asS'nta'
p12
(lp13
F0.81954058000000007
aF1.2053358299999997
aF1.2635011
aF1.4744766
aF1.4734833333333333
aF1.5132330000000001
aF1.3614664999999999
aF1.2807955
aF1.2365210000000002
aF1.0223479
aF0.74154439999999999
aF0.76995000000000002
aF0.78523899999999991
aF0.77547033333333337
aF0.74754566666666677
aF0.75090599999999996
asS'array'
p14
(lp15
F0.81677715000000017
aF1.1948454999999998
aF1.2537447999999998
aF1.4509665999999999
aF1.479609
aF1.5101425000000002
aF1.3691385
aF1.2858624999999999
aF1.2287269999999999
aF0.98560229999999982
aF0.81451859999999987
aF0.81442020000000004
aF0.79198700000000011
aF0.78781699999999999
aF0.74476699999999996
aF0.65223066666666663
asS'ssa'
p16
(lp17
F0.80461318999999987
aF1.1932225300000001
aF1.2544590000000002
aF1.379823
aF1.4720716666666669
aF1.4967344999999999
aF1.3673905
aF1.2755225000000001
aF1.2467950000000001
aF1.0185077
aF0.63028860000000009
aF0.77543880000000009
aF0.79659900000000006
aF0.76348499999999986
aF0.75021099999999985
aF0.76665100000000008
as.