(dp1
S'avx'
p2
(lp3
F1.0541082499999996e-06
aF4.2420389000000003e-06
aF6.9309039999999993e-06
aF2.6219149800000008e-05
aF6.7356913333333331e-05
aF9.9590099999999994e-05
aF0.00025668395499999999
aF0.00047667039999999992
aF0.0015908892000000001
aF0.0037295219999999999
aF0.0052481000000000003
aF0.010056134
aF0.012519123333333333
aF0.028274499999999998
aF0.075357333333333332
aF0.15844833333333333
asS'baseline'
p4
(lp5
F7.7467644000000027e-07
aF2.6824909399999999e-06
aF5.4930373999999999e-06
aF1.5544903200000002e-05
aF4.2382870000000008e-05
aF6.5629750000000003e-05
aF0.00018178604999999999
aF0.00034079179999999996
aF0.0012235401
aF0.0027380315000000003
aF0.0047816500000000001
aF0.0088624740000000004
aF0.011577789999999999
aF0.026483166666666665
aF0.082309666666666656
aF0.15350300000000003
asS'block2x4_swap'
p6
(lp7
F8.7715250999999994e-07
aF2.9354567600000004e-06
aF4.5377302000000001e-06
aF1.4994419e-05
aF3.750849666666667e-05
aF5.5560349999999994e-05
aF0.00016015523000000002
aF0.00032115709999999995
aF0.001207697
aF0.0029423550000000002
aF0.0057405980000000004
aF0.0083510240000000003
aF0.018678459999999997
aF0.02709333333333333
aF0.074947
aF0.14374666666666666
asS'block2x4'
p8
(lp9
F8.0986663999999966e-07
aF2.7736725399999993e-06
aF4.3941522000000005e-06
aF1.5204237600000005e-05
aF3.9253580000000005e-05
aF5.7722124999999989e-05
aF0.00016090019499999999
aF0.00032918639999999995
aF0.0011453721
aF0.0029238520000000002
aF0.0045165739999999998
aF0.0080492240000000007
aF0.012071873333333332
aF0.027615000000000001
aF0.07819799999999999
aF0.14548533333333333
asS'sse'
p10
(lp11
F1.3182064700000003e-06
aF5.6742488999999997e-06
aF9.4069958000000024e-06
aF3.5611353999999997e-05
aF9.1752466666666653e-05
aF0.00013463705
aF0.00033149250499999995
aF0.00059678764999999989
aF0.0020452639999999998
aF0.0045233310000000002
aF0.0063067999999999996
aF0.010777474
aF0.017512233333333332
aF0.032560499999999999
aF0.080912999999999999
aF0.18921866666666667
asS'nta'
p12
(lp13
F8.7750509000000032e-07
aF3.1934701599999998e-06
aF5.2277927999999995e-06
aF1.7702571400000003e-05
aF4.8007446666666649e-05
aF6.9931385000000025e-05
aF0.00019019781999999997
aF0.00035932320000000006
aF0.0012642743999999998
aF0.0030244669999999999
aF0.0058411499999999989
aF0.0089847239999999995
aF0.012099126666666666
aF0.0267365
aF0.070555333333333331
aF0.14907499999999999
asS'array'
p14
(lp15
F8.7925091000000001e-07
aF3.222211540000001e-06
aF5.2355960000000002e-06
aF1.80027766e-05
aF4.7537023333333335e-05
aF6.9955960000000003e-05
aF0.00019031222999999999
aF0.00035668749999999991
aF0.0012744473000000001
aF0.0031486159999999999
aF0.0048132740000000002
aF0.0080037500000000004
aF0.011780083333333335
aF0.026262666666666667
aF0.070742666666666662
aF0.17031833333333332
asS'ssa'
p16
(lp17
F8.9248472000000019e-07
aF3.227468e-06
aF5.2332416000000003e-06
aF1.8928053200000004e-05
aF4.7881323333333324e-05
aF7.0533100000000004e-05
aF0.00019014926500000002
aF0.00036072574999999998
aF0.0012667411999999999
aF0.0030185720000000002
aF0.0063252000000000004
aF0.0084865899999999987
aF0.011876873333333334
aF0.027338666666666667
aF0.070384999999999989
aF0.14736166666666667
as.